ccollections
defaultdict
p0
(c__builtin__
set
p1
tp2
Rp3
S'augustina'
p4
g1
((lp5
g4
aS'gussie'
p6
aS'aggy'
p7
aS'gatsy'
p8
aS'tina'
p9
atp10
Rp11
sS'augustine'
p12
g1
((lp13
S'gus'
p14
aS'austin'
p15
aS'august'
p16
ag12
atp17
Rp18
sS'unice'
p19
g1
((lp20
S'eunice'
p21
aS'nicie'
p22
ag19
atp23
Rp24
sS'arminta'
p25
g1
((lp26
S'minite'
p27
ag25
aS'minnie'
p28
atp29
Rp30
sS'woody'
p31
g1
((lp32
g31
aS'elwood'
p33
aS'wood'
p34
aS'drew'
p35
aS'woodrow'
p36
atp37
Rp38
sS'gabriella'
p39
g1
((lp40
g39
aS'gabe'
p41
aS'gabby'
p42
aS'ella'
p43
aS'gabrielle'
p44
atp45
Rp46
sg44
g1
((lp47
g39
ag41
ag42
aS'ella'
p48
ag44
atp49
Rp50
sS'ozzy'
p51
g1
((lp52
g51
aS'oswald'
p53
aS'waldo'
p54
aS'ossy'
p55
atp56
Rp57
sS'sanford'
p58
g1
((lp59
g58
aS'sandy'
p60
atp61
Rp62
sS'edward'
p63
g1
((lp64
S'teddy'
p65
aS'ed'
p66
aS'ned'
p67
aS'ted'
p68
aS'eddie'
p69
aS'eddy'
p70
ag63
atp71
Rp72
sS'ren'
p73
g1
((lp74
S'laurie'
p75
aS'lauren'
p76
ag73
atp77
Rp78
sS'artelepsa'
p79
g1
((lp80
S'epsey'
p81
ag79
atp82
Rp83
sS'delf'
p84
g1
((lp85
S'delphi'
p86
aS'delphine'
p87
aS'del'
p88
ag84
atp89
Rp90
sS'callie'
p91
g1
((lp92
g91
aS'california'
p93
atp94
Rp95
sS'rhynie'
p96
g1
((lp97
S'rhyna'
p98
ag96
atp99
Rp100
sS'penny'
p101
g1
((lp102
S'penelope'
p103
ag101
atp104
Rp105
sS'dell'
p106
g1
((lp107
S'delia'
p108
aS'lena'
p109
aS'delilah'
p110
aS'adelphia'
p111
aS'lil'
p112
aS'adeline'
p113
aS'delores'
p114
aS'adaline'
p115
aS'addy'
p116
ag106
aS'delphia'
p117
aS'adele'
p118
aS'lola'
p119
aS'heidi'
p120
aS'ada'
p121
aS'lila'
p122
aS'della'
p123
aS'philly'
p124
aS'lolly'
p125
aS'dee'
p126
aS'adelaide'
p127
atp128
Rp129
sS'wilfred'
p130
g1
((lp131
S'will'
p132
aS'willie'
p133
ag130
aS'fred'
p134
atp135
Rp136
sS'senie'
p137
g1
((lp138
S'eseneth'
p139
ag137
atp140
Rp141
sS'jacob'
p142
g1
((lp143
g142
aS'jaap'
p144
aS'jacobus'
p145
aS'jake'
p146
aS'jay'
p147
atp148
Rp149
sS'hessy'
p150
g1
((lp151
g150
aS'esther'
p152
aS'hester'
p153
aS'hetty'
p154
atp155
Rp156
sS'mert'
p157
g1
((lp158
S'myrt'
p159
aS'myrti'
p160
aS'myrtle'
p161
ag157
atp162
Rp163
sS'rosalyn'
p164
g1
((lp165
S'linda'
p166
aS'roz'
p167
aS'rose'
p168
ag164
aS'rosa'
p169
atp170
Rp171
sS'herbert'
p172
g1
((lp173
S'herb'
p174
aS'bert'
p175
ag172
atp176
Rp177
sS'harriet'
p178
g1
((lp179
g178
aS'hattie'
p180
atp181
Rp182
sS'vincenzo'
p183
g1
((lp184
S'vic'
p185
aS'vinnie'
p186
aS'vin'
p187
aS'vinny'
p188
ag183
atp189
Rp190
sS'eileen'
p191
g1
((lp192
g191
aS'lena'
p193
aS'eleanor'
p194
aS'nell'
p195
aS'nellie'
p196
aS'helena'
p197
aS'elaine'
p198
aS'ellen'
p199
aS'helen'
p200
aS'aileen'
p201
atp202
Rp203
sS'chet'
p204
g1
((lp205
g204
aS'chester'
p206
aS'chesley'
p207
atp208
Rp209
sS'cher'
p210
g1
((lp211
S'sher'
p212
ag210
atp213
Rp214
sS'calpurnia'
p215
g1
((lp216
g215
aS'cally'
p217
atp218
Rp219
sS'philomena'
p220
g1
((lp221
S'menaalmena'
p222
ag220
atp223
Rp224
sS'rusty'
p225
g1
((lp226
S'russ'
p227
ag225
aS'russell'
p228
atp229
Rp230
sS'melvin'
p231
g1
((lp232
S'mel'
p233
ag231
atp234
Rp235
sS'titia'
p236
g1
((lp237
S'tish'
p238
aS'lettie'
p239
ag236
aS'letitia'
p240
aS'lettice'
p241
atp242
Rp243
sS'ned'
p244
g1
((lp245
g65
aS'ed'
p246
ag244
aS'ted'
p247
aS'eddy'
p248
aS'eddie'
p249
ag63
aS'edmund'
p250
aS'win'
p251
aS'edwin'
p252
atp253
Rp254
sS'fidelia'
p255
g1
((lp256
S'delia'
p257
ag255
aS'cordelia'
p258
aS'delius'
p259
atp260
Rp261
sS'shelly'
p262
g1
((lp263
S'sheldon'
p264
aS'shel'
p265
aS'rachel'
p266
ag262
aS'shelton'
p267
aS'tony'
p268
atp269
Rp270
sS'natius'
p271
g1
((lp272
g271
aS'ignatius'
p273
aS'iggy'
p274
aS'nate'
p275
aS'nace'
p276
atp277
Rp278
sS'minty'
p279
g1
((lp280
S'armida'
p281
aS'middie'
p282
aS'araminta'
p283
ag279
aS'ruminta'
p284
atp285
Rp286
sS'lizzie'
p287
g1
((lp288
S'beth'
p289
aS'elizabeth'
p290
aS'lib'
p291
ag287
aS'eliza'
p292
aS'alice'
p293
aS'betsy'
p294
aS'liza'
p295
aS'betty'
p296
aS'bessie'
p297
aS'bess'
p298
aS'lisa'
p299
aS'libby'
p300
aS'liz'
p301
aS'melissa'
p302
atp303
Rp304
sS'antoinette'
p305
g1
((lp306
S'tony'
p307
aS'netta'
p308
aS'ann'
p309
ag305
atp310
Rp311
sS'meg'
p312
g1
((lp313
S'maggie'
p314
aS'margaret'
p315
aS'maisie'
p316
aS'madge'
p317
aS'margaretta'
p318
aS'margo'
p319
aS'peggie'
p320
aS'peg'
p321
aS'rita'
p322
ag312
aS'greta'
p323
aS'margy'
p324
aS'margie'
p325
aS'megan'
p326
aS'peggy'
p327
aS'marge'
p328
aS'margarita'
p329
aS'metta'
p330
aS'midge'
p331
aS'gretta'
p332
aS'maggy'
p333
aS'daisy'
p334
aS'margery'
p335
atp336
Rp337
sS'dahl'
p338
g1
((lp339
S'dal'
p340
aS'dalton'
p341
ag338
atp342
Rp343
sS'zach'
p344
g1
((lp345
S'zachy'
p346
aS'zachariah'
p347
ag344
aS'zeke'
p348
atp349
Rp350
sS'mel'
p351
g1
((lp352
S'lynn'
p353
ag231
aS'emma'
p354
aS'mindy'
p355
aS'milly'
p356
aS'lindy'
p357
ag351
aS'lissa'
p358
aS'amy'
p359
aS'linda'
p360
aS'missy'
p361
aS'melissa'
p362
aS'melinda'
p363
aS'amelia'
p364
aS'millie'
p365
aS'lisa'
p366
aS'emmy'
p367
aS'emily'
p368
atp369
Rp370
sS'eunice'
p371
g1
((lp372
g371
aS'nicie'
p373
ag19
atp374
Rp375
sS'drew'
p376
g1
((lp377
S'andrew'
p378
ag36
ag34
aS'andy'
p379
ag376
aS'woody'
p380
atp381
Rp382
sS'beck'
p383
g1
((lp384
S'rebecca'
p385
ag383
aS'becca'
p386
aS'reba'
p387
aS'becky'
p388
atp389
Rp390
sS'dora'
p391
g1
((lp392
S'dorothea'
p393
aS'doda'
p394
aS'eudora'
p395
aS'medora'
p396
aS'theodora'
p397
ag391
aS'pandora'
p398
aS'dorinda'
p399
aS'isadora'
p400
aS'issy'
p401
aS'doris'
p402
atp403
Rp404
sS'nanny'
p405
g1
((lp406
S'nancy'
p407
aS'nana'
p408
aS'ann'
p409
aS'nan'
p410
aS'hannah'
p411
ag405
aS'annie'
p412
aS'anne'
p413
aS'anna'
p414
atp415
Rp416
sS'drea'
p417
g1
((lp418
g417
aS'andrea'
p419
aS'rea'
p420
aS'andrew'
p421
atp422
Rp423
sS'gerry'
p424
g1
((lp425
g424
aS'dina'
p426
aS'gerald'
p427
aS'geraldine'
p428
aS'jerry'
p429
aS'gerrie'
p430
atp431
Rp432
sS'luther'
p433
g1
((lp434
S'luke'
p435
ag433
atp436
Rp437
sS'mavery'
p438
g1
((lp439
g438
aS'mave'
p440
atp441
Rp442
sS'immanuel'
p443
g1
((lp444
g443
aS'manuel'
p445
aS'emmanuel'
p446
atp447
Rp448
sS'asahel'
p449
g1
((lp450
S'asa'
p451
ag449
atp452
Rp453
sS'dre'
p454
g1
((lp455
S'sondra'
p456
ag454
aS'sonnie'
p457
atp458
Rp459
sS'joshua'
p460
g1
((lp461
g460
aS'jos'
p462
aS'josh'
p463
atp464
Rp465
sS'marianna'
p466
g1
((lp467
g466
aS'marion'
p468
aS'marian'
p469
atp470
Rp471
sg457
g1
((lp472
g456
ag454
ag457
atp473
Rp474
sS'carmellia'
p475
g1
((lp476
S'mellia'
p477
ag475
atp478
Rp479
sS'julie'
p480
g1
((lp481
g480
aS'jill'
p482
aS'jule'
p483
aS'julia'
p484
atp485
Rp486
sg316
g1
((lp487
S'maggie'
p488
ag320
aS'meg'
p489
aS'midge'
p490
ag323
ag330
ag316
ag326
aS'marge'
p491
aS'daisy'
p492
ag319
aS'madge'
p493
aS'rita'
p494
ag329
atp495
Rp496
sS'lonzo'
p497
g1
((lp498
g497
aS'lon'
p499
aS'al'
p500
aS'alonzo'
p501
atp502
Rp503
sS'patience'
p504
g1
((lp505
g504
aS'pat'
p506
aS'patty'
p507
atp508
Rp509
sS'dortha'
p510
g1
((lp511
S'dorothy'
p512
ag510
aS'dolly'
p513
aS'dot'
p514
aS'dotty'
p515
atp516
Rp517
sS'tempy'
p518
g1
((lp519
g518
aS'temperance'
p520
atp521
Rp522
sS'sarah'
p523
g1
((lp524
g523
aS'sally'
p525
aS'sadie'
p526
atp527
Rp528
sS'nora'
p529
g1
((lp530
S'nonie'
p531
aS'leonore'
p532
aS'lanna'
p533
aS'elenor'
p534
aS'lee'
p535
aS'nelly'
p536
aS'nellie'
p537
aS'nell'
p538
aS'ellie'
p539
aS'honora'
p540
aS'honey'
p541
aS'eleanor'
p542
ag529
aS'elnora'
p543
aS'elaine'
p544
aS'ellen'
p545
aS'lenora'
p546
aS'norah'
p547
aS'honor'
p548
aS'norry'
p549
aS'leonora'
p550
atp551
Rp552
sS'lorry'
p553
g1
((lp554
S'lorne'
p555
aS'lawrence'
p556
aS'lon'
p557
aS'laurence'
p558
aS'larry'
p559
aS'lonny'
p560
ag553
atp561
Rp562
sS'odell'
p563
g1
((lp564
g563
aS'odo'
p565
atp566
Rp567
sS'mathew'
p568
g1
((lp569
g568
aS'matthew'
p570
aS'matt'
p571
atp572
Rp573
sS'berney'
p574
g1
((lp575
S'bernard'
p576
ag574
aS'barney'
p577
aS'bernie'
p578
atp579
Rp580
sS'debora'
p581
g1
((lp582
S'deb'
p583
aS'debby'
p584
ag581
aS'debbie'
p585
atp586
Rp587
sS'onie'
p588
g1
((lp589
S'ona'
p590
ag588
aS'arizona'
p591
aS'yeona'
p592
atp593
Rp594
sg394
g1
((lp595
S'dorothea'
p596
ag394
aS'dora'
p597
atp598
Rp599
sS'flora'
p600
g1
((lp601
S'flossy'
p602
ag600
aS'florence'
p603
aS'flo'
p604
atp605
Rp606
sS'mc'
p607
g1
((lp608
S'mac'
p609
aS'mack'
p610
ag607
atp611
Rp612
sS'orilla'
p613
g1
((lp614
S'rilly'
p615
aS'aurilla'
p616
ag613
aS'aurelia'
p617
aS'ree'
p618
aS'ora'
p619
atp620
Rp621
sS'henry'
p622
g1
((lp623
S'hank'
p624
aS'harold'
p625
ag622
aS'hal'
p626
aS'harry'
p627
atp628
Rp629
sS'ernest'
p630
g1
((lp631
S'ernie'
p632
aS'erna'
p633
aS'teeny'
p634
aS'tina'
p635
ag630
aS'ernestine'
p636
atp637
Rp638
sS'gloria'
p639
g1
((lp640
S'glory'
p641
ag639
atp642
Rp643
sS'matilda'
p644
g1
((lp645
S'tilly'
p646
aS'maud'
p647
aS'matty'
p648
ag644
atp649
Rp650
sS'hallie'
p651
g1
((lp652
S'mahala'
p653
ag651
atp654
Rp655
sS'barbery'
p656
g1
((lp657
g656
aS'barbara'
p658
atp659
Rp660
sS'theodosia'
p661
g1
((lp662
S'theo'
p663
ag661
aS'theodosius'
p664
aS'dosia'
p665
atp666
Rp667
sS'micky'
p668
g1
((lp669
S'mick'
p670
ag668
aS'mike'
p671
aS'micah'
p672
aS'michael'
p673
atp674
Rp675
sg541
g1
((lp676
g541
aS'nora'
p677
ag549
ag547
ag540
atp678
Rp679
sS'fay'
p680
g1
((lp681
S'faith'
p682
ag680
atp683
Rp684
sS'assene'
p685
g1
((lp686
S'natty'
p687
aS'asenath'
p688
ag685
aS'sene'
p689
atp690
Rp691
sS'joann'
p692
g1
((lp693
g692
aS'jo'
p694
atp695
Rp696
sg274
g1
((lp697
g273
ag274
ag276
aS'ignatzio'
p698
ag271
aS'naz'
p699
ag275
atp700
Rp701
sS'lura'
p702
g1
((lp703
g702
aS'lurana'
p704
atp705
Rp706
sS'elbert'
p707
g1
((lp708
g707
aS'bert'
p709
aS'elbertson'
p710
aS'albert'
p711
atp712
Rp713
sS'elswood'
p714
g1
((lp715
g714
aS'elsey'
p716
atp717
Rp718
sS'winny'
p719
g1
((lp720
S'freddy'
p721
aS'winnifred'
p722
aS'winnie'
p723
aS'win'
p724
ag719
aS'fred'
p725
aS'freddie'
p726
aS'field'
p727
aS'winfield'
p728
atp729
Rp730
sS'hop'
p731
g1
((lp732
S'hopp'
p733
ag731
aS'hopkins'
p734
atp735
Rp736
sS'ronnie'
p737
g1
((lp738
S'ronald'
p739
aS'ron'
p740
aS'veronica'
p741
aS'ronna'
p742
aS'ronie'
p743
aS'vonnie'
p744
aS'erin'
p745
aS'aaron'
p746
aS'frony'
p747
aS'franky'
p748
ag737
aS'ronny'
p749
atp750
Rp751
sS'lan'
p752
g1
((lp753
S'yulan'
p754
ag752
aS'yul'
p755
atp756
Rp757
sg388
g1
((lp758
S'beck'
p759
aS'reba'
p760
ag388
ag385
aS'becca'
p761
atp762
Rp763
sS'elizabeth'
p764
g1
((lp765
S'beth'
p766
ag764
ag291
ag287
aS'eliza'
p767
aS'betsy'
p768
ag295
aS'betty'
p769
ag297
ag298
ag299
ag300
ag301
atp770
Rp771
sg592
g1
((lp772
S'onie'
p773
aS'ona'
p774
ag592
atp775
Rp776
sS'pokey'
p777
g1
((lp778
g777
aS'pocahontas'
p779
atp780
Rp781
sS'judie'
p782
g1
((lp783
S'judi'
p784
aS'juda'
p785
aS'judy'
p786
aS'jude'
p787
ag782
aS'judith'
p788
atp789
Rp790
sS'edyth'
p791
g1
((lp792
g791
aS'edye'
p793
aS'edie'
p794
atp795
Rp796
sS'pasoonie'
p797
g1
((lp798
S'teeny'
p799
aS'parthenia'
p800
aS'parsuny'
p801
ag797
aS'phenie'
p802
atp803
Rp804
sS'danny'
p805
g1
((lp806
S'sheridan'
p807
aS'dan'
p808
ag805
aS'sher'
p809
aS'daniel'
p810
atp811
Rp812
sS'rosalinda'
p813
g1
((lp814
S'linda'
p815
aS'roz'
p816
aS'rosa'
p817
ag813
aS'rose'
p818
atp819
Rp820
sS'wint'
p821
g1
((lp822
S'winton'
p823
ag821
atp824
Rp825
sS'janie'
p826
g1
((lp827
S'jane'
p828
ag826
aS'jean'
p829
aS'jennie'
p830
aS'jessie'
p831
atp832
Rp833
sS'green'
p834
g1
((lp835
g834
aS'greenberry'
p836
aS'berry'
p837
atp838
Rp839
sS'avarilla'
p840
g1
((lp841
S'rilla'
p842
ag840
atp843
Rp844
sS'jack'
p845
g1
((lp846
S'jacqueline'
p847
aS'jackson'
p848
aS'johnny'
p849
aS'jackie'
p850
ag845
aS'john'
p851
aS'jock'
p852
atp853
Rp854
sS'zeb'
p855
g1
((lp856
g855
aS'zebedee'
p857
atp858
Rp859
sS'zed'
p860
g1
((lp861
S'dyer'
p862
aS'zedediah'
p863
aS'diah'
p864
ag860
atp865
Rp866
sS'fifi'
p867
g1
((lp868
g867
aS'phoebe'
p869
atp870
Rp871
sS'bella'
p872
g1
((lp873
S'tibbie'
p874
aS'arabella'
p875
aS'isabella'
p876
aS'arabelle'
p877
aS'bell'
p878
aS'nib'
p879
aS'belle'
p880
aS'isabelle'
p881
ag872
aS'isabel'
p882
aS'ara'
p883
aS'nibby'
p884
aS'ib'
p885
aS'issy'
p886
aS'arry'
p887
atp888
Rp889
sg197
g1
((lp890
S'eileen'
p891
ag193
ag194
ag195
ag196
ag197
ag198
ag199
ag201
atp892
Rp893
sS'helene'
p894
g1
((lp895
S'ella'
p896
aS'lena'
p897
ag894
aS'ellie'
p898
aS'ellen'
p899
atp900
Rp901
sS'mabel'
p902
g1
((lp903
g902
aS'mehitabel'
p904
aS'hetty'
p905
aS'amabel'
p906
aS'mitty'
p907
aS'hitty'
p908
atp909
Rp910
sg53
g1
((lp911
g53
aS'ozzy'
p912
aS'ossy'
p913
ag54
atp914
Rp915
sS'tiffy'
p916
g1
((lp917
S'tiff'
p918
aS'tiffany'
p919
ag916
atp920
Rp921
sS'ebenezer'
p922
g1
((lp923
S'eben'
p924
aS'ebbie'
p925
ag922
aS'eb'
p926
atp927
Rp928
sg347
g1
((lp929
g346
ag347
ag344
ag348
atp930
Rp931
sS'clo'
p932
g1
((lp933
g932
aS'chloe'
p934
atp935
Rp936
sS'edith'
p937
g1
((lp938
g937
aS'edye'
p939
aS'edie'
p940
atp941
Rp942
sS'uriah'
p943
g1
((lp944
S'riah'
p945
ag943
atp946
Rp947
sS'fie'
p948
g1
((lp949
S'philander'
p950
ag948
atp951
Rp952
sS'violetta'
p953
g1
((lp954
g953
aS'lettie'
p955
atp956
Rp957
sS'eugene'
p958
g1
((lp959
S'gene'
p960
ag958
atp961
Rp962
sS'theo'
p963
g1
((lp964
g963
ag664
aS'teddy'
p965
aS'theodore'
p966
ag661
aS'ted'
p967
ag665
atp968
Rp969
sg266
g1
((lp970
g266
ag262
atp971
Rp972
sg616
g1
((lp973
g615
ag616
ag613
ag617
ag618
ag619
atp974
Rp975
sS'dickson'
p976
g1
((lp977
S'dick'
p978
ag976
atp979
Rp980
sS'dickie'
p981
g1
((lp982
S'richard'
p983
aS'dick'
p984
aS'dickon'
p985
ag981
aS'dicky'
p986
aS'rick'
p987
aS'rich'
p988
aS'ricky'
p989
atp990
Rp991
sS'alex'
p992
g1
((lp993
S'bert'
p994
ag992
aS'alla'
p995
aS'albert'
p996
aS'al'
p997
aS'sandra'
p998
aS'alexandra'
p999
aS'sandy'
p1000
aS'alexander'
p1001
atp1002
Rp1003
sg54
g1
((lp1004
g53
ag912
ag913
ag54
atp1005
Rp1006
sS'lillian'
p1007
g1
((lp1008
g1007
aS'lil'
p1009
aS'lilly'
p1010
aS'lolly'
p1011
atp1012
Rp1013
sS'lucy'
p1014
g1
((lp1015
S'lucinda'
p1016
aS'lucille'
p1017
ag1014
aS'lucius'
p1018
aS'lu'
p1019
aS'cindy'
p1020
aS'lou'
p1021
aS'cille'
p1022
aS'lucia'
p1023
atp1024
Rp1025
sS'alexis'
p1026
g1
((lp1027
S'lexi'
p1028
ag1026
atp1029
Rp1030
sS'hobkin'
p1031
g1
((lp1032
S'hob'
p1033
aS'dobbin'
p1034
aS'bobby'
p1035
aS'dob'
p1036
aS'robert'
p1037
ag1031
aS'bob'
p1038
aS'rob'
p1039
atp1040
Rp1041
sS'anastasia'
p1042
g1
((lp1043
g1042
aS'ana'
p1044
aS'stacy'
p1045
atp1046
Rp1047
sS'lige'
p1048
g1
((lp1049
g1048
aS'elijah'
p1050
aS'eli'
p1051
atp1052
Rp1053
sg373
g1
((lp1054
g371
ag373
ag19
atp1055
Rp1056
sS'domenic'
p1057
g1
((lp1058
g1057
aS'dom'
p1059
atp1060
Rp1061
sS'diana'
p1062
g1
((lp1063
g1062
aS'di'
p1064
aS'didi'
p1065
aS'dicey'
p1066
atp1067
Rp1068
sS'tamarra'
p1069
g1
((lp1070
g1069
aS'tammy'
p1071
atp1072
Rp1073
sS'diane'
p1074
g1
((lp1075
S'didi'
p1076
aS'di'
p1077
ag1074
aS'dicey'
p1078
atp1079
Rp1080
sS'allan'
p1081
g1
((lp1082
g1081
aS'al'
p1083
atp1084
Rp1085
sg33
g1
((lp1086
g31
ag33
atp1087
Rp1088
sS'doug'
p1089
g1
((lp1090
S'douglas'
p1091
ag1089
atp1092
Rp1093
sS'meaka'
p1094
g1
((lp1095
S'ken'
p1096
aS'mckenna'
p1097
aS'kenna'
p1098
ag1094
atp1099
Rp1100
sS'arielle'
p1101
g1
((lp1102
g1101
aS'arie'
p1103
atp1104
Rp1105
sS'mandy'
p1106
g1
((lp1107
g1106
aS'armanda'
p1108
aS'mira'
p1109
aS'randy'
p1110
aS'manda'
p1111
aS'miranda'
p1112
aS'amanda'
p1113
atp1114
Rp1115
sS'ry'
p1116
g1
((lp1117
g1116
aS'ryan'
p1118
atp1119
Rp1120
sg966
g1
((lp1121
g963
ag966
ag967
ag965
atp1122
Rp1123
sS'nita'
p1124
g1
((lp1125
S'juanita'
p1126
ag1124
aS'nettie'
p1127
atp1128
Rp1129
sg810
g1
((lp1130
g808
ag805
ag810
atp1131
Rp1132
sg1111
g1
((lp1133
g1106
ag1111
ag1113
atp1134
Rp1135
sg788
g1
((lp1136
g784
ag785
ag786
ag787
ag782
ag788
atp1137
Rp1138
sS'lineau'
p1139
g1
((lp1140
g1139
aS'lenny'
p1141
aS'len'
p1142
aS'leo'
p1143
aS'leonard'
p1144
aS'leon'
p1145
atp1146
Rp1147
sg591
g1
((lp1148
g590
ag588
ag591
atp1149
Rp1150
sS'clarence'
p1151
g1
((lp1152
S'clare'
p1153
ag1151
aS'clair'
p1154
atp1155
Rp1156
sS'tasha'
p1157
g1
((lp1158
g1157
aS'tash'
p1159
aS'tashie'
p1160
aS'nat'
p1161
aS'natasha'
p1162
atp1163
Rp1164
sS'fred'
p1165
g1
((lp1166
g723
aS'al'
p1167
aS'frieda'
p1168
ag132
ag722
aS'robert'
p1169
aS'winny'
p1170
aS'ferdie'
p1171
aS'alfred'
p1172
aS'ferdinand'
p1173
aS'ferdinando'
p1174
ag1165
aS'william'
p1175
aS'nando'
p1176
aS'fritz'
p1177
ag130
aS'freddie'
p1178
aS'wilbur'
p1179
aS'willie'
p1180
aS'bill'
p1181
aS'frederick'
p1182
aS'freddy'
p1183
aS'billy'
p1184
atp1185
Rp1186
sS'kayla'
p1187
g1
((lp1188
g1187
aS'kay'
p1189
atp1190
Rp1191
sg830
g1
((lp1192
g831
aS'virgy'
p1193
aS'virginia'
p1194
aS'ginger'
p1195
aS'jennifer'
p1196
ag826
ag830
ag828
ag829
aS'ginny'
p1197
atp1198
Rp1199
sS'euphemia'
p1200
g1
((lp1201
S'effie'
p1202
aS'effy'
p1203
ag1200
atp1204
Rp1205
sS'syl'
p1206
g1
((lp1207
S'vest'
p1208
aS'vet'
p1209
aS'sly'
p1210
aS'sylvanus'
p1211
aS'sylvester'
p1212
aS'sy'
p1213
ag1206
aS'vester'
p1214
aS'si'
p1215
aS'silvester'
p1216
aS'vessie'
p1217
atp1218
Rp1219
sS'nonie'
p1220
g1
((lp1221
S'hannah'
p1222
aS'nora'
p1223
aS'jo'
p1224
aS'johannah'
p1225
aS'jody'
p1226
aS'joan'
p1227
ag1220
atp1228
Rp1229
sg399
g1
((lp1230
g393
ag391
ag399
atp1231
Rp1232
sS'birdie'
p1233
g1
((lp1234
S'bert'
p1235
aS'roberta'
p1236
aS'robbie'
p1237
aS'bertie'
p1238
aS'bertha'
p1239
aS'bobbie'
p1240
ag1233
atp1241
Rp1242
sS'lucina'
p1243
g1
((lp1244
g1243
aS'sinah'
p1245
atp1246
Rp1247
sS'nowell'
p1248
g1
((lp1249
g1248
aS'noel'
p1250
atp1251
Rp1252
sS'louie'
p1253
g1
((lp1254
S'lou'
p1255
aS'louis'
p1256
aS'louise'
p1257
ag1253
aS'lewis'
p1258
atp1259
Rp1260
sS'maggie'
p1261
g1
((lp1262
g1261
ag315
ag312
ag316
aS'madge'
p1263
ag318
ag319
ag320
aS'madeline'
p1264
ag321
ag322
aS'magda'
p1265
aS'lena'
p1266
ag323
ag324
ag325
ag326
aS'maddy'
p1267
ag327
ag328
ag329
ag330
ag331
ag332
ag333
ag334
ag335
aS'magdalena'
p1268
atp1269
Rp1270
sS'bridgie'
p1271
g1
((lp1272
g1271
aS'biddy'
p1273
aS'bridie'
p1274
aS'bridget'
p1275
aS'biddie'
p1276
atp1277
Rp1278
sS'gustavus'
p1279
g1
((lp1280
g1279
aS'gus'
p1281
atp1282
Rp1283
sS'wash'
p1284
g1
((lp1285
g1284
aS'washington'
p1286
atp1287
Rp1288
sS'bridgit'
p1289
g1
((lp1290
S'delia'
p1291
ag1289
aS'bedelia'
p1292
atp1293
Rp1294
sS'mervyn'
p1295
g1
((lp1296
g1295
aS'merv'
p1297
atp1298
Rp1299
sS'timothy'
p1300
g1
((lp1301
S'tim'
p1302
aS'timmy'
p1303
ag1300
atp1304
Rp1305
sS'jefferey'
p1306
g1
((lp1307
g1306
aS'jeff'
p1308
atp1309
Rp1310
sS'reuben'
p1311
g1
((lp1312
S'rube'
p1313
ag1311
atp1314
Rp1315
sg320
g1
((lp1316
g488
ag320
ag489
ag490
ag323
ag330
ag316
ag326
ag491
ag492
ag319
ag493
ag494
ag329
atp1317
Rp1318
sS'bazaleel'
p1319
g1
((lp1320
S'basil'
p1321
ag1319
atp1322
Rp1323
sg1265
g1
((lp1324
g1261
ag1266
aS'magdelina'
p1325
ag1267
ag1263
ag1264
ag1265
atp1326
Rp1327
sS'tom'
p1328
g1
((lp1329
S'thom'
p1330
aS'thomas'
p1331
ag1328
aS'tommy'
p1332
atp1333
Rp1334
sS'gilbert'
p1335
g1
((lp1336
S'bert'
p1337
ag1335
aS'gil'
p1338
aS'wilber'
p1339
atp1340
Rp1341
sS'john'
p1342
g1
((lp1343
S'ian'
p1344
aS'nathan'
p1345
aS'johnny'
p1346
aS'johannes'
p1347
aS'jack'
p1348
aS'ivan'
p1349
aS'jonathan'
p1350
ag1342
aS'jon'
p1351
ag852
atp1352
Rp1353
sS'sigismund'
p1354
g1
((lp1355
S'sig'
p1356
ag1354
atp1357
Rp1358
sS'lissia'
p1359
g1
((lp1360
g1359
aS'alyssa'
p1361
aS'ally'
p1362
aS'al'
p1363
atp1364
Rp1365
sS'albert'
p1366
g1
((lp1367
S'bert'
p1368
ag992
ag707
aS'adelbert'
p1369
ag1366
ag997
aS'del'
p1370
aS'delbert'
p1371
atp1372
Rp1373
sS'crate'
p1374
g1
((lp1375
S'socrates'
p1376
ag1374
atp1377
Rp1378
sg200
g1
((lp1379
g191
aS'lena'
p1380
aS'ella'
p1381
aS'nell'
p1382
aS'nellie'
p1383
aS'ellender'
p1384
aS'ellie'
p1385
aS'lainie'
p1386
aS'ellen'
p1387
ag200
aS'elaine'
p1388
aS'elena'
p1389
atp1390
Rp1391
sS'gretchen'
p1392
g1
((lp1393
g1392
aS'margaret'
p1394
atp1395
Rp1396
sS'mercy'
p1397
g1
((lp1398
S'mariah'
p1399
ag1397
aS'merci'
p1400
aS'polly'
p1401
aS'may'
p1402
aS'mitzi'
p1403
aS'sadie'
p1404
aS'molly'
p1405
aS'minnie'
p1406
aS'mollie'
p1407
aS'marietta'
p1408
aS'mae'
p1409
aS'maureen'
p1410
aS'mercedes'
p1411
aS'marion'
p1412
aS'marie'
p1413
aS'mamie'
p1414
aS'mary'
p1415
aS'maria'
p1416
atp1417
Rp1418
sS'asaph'
p1419
g1
((lp1420
S'asa'
p1421
ag1419
atp1422
Rp1423
sS'kenji'
p1424
g1
((lp1425
S'kenj'
p1426
ag1424
aS'kay'
p1427
aS'kendra'
p1428
aS'kenny'
p1429
atp1430
Rp1431
sS'silla'
p1432
g1
((lp1433
S'drusilla'
p1434
aS'sarilla'
p1435
ag1432
atp1436
Rp1437
sS'sceeter'
p1438
g1
((lp1439
S'scottie'
p1440
aS'scotty'
p1441
ag1438
aS'squat'
p1442
aS'scott'
p1443
atp1444
Rp1445
sg1400
g1
((lp1446
g1411
ag1400
aS'mercy'
p1447
ag1404
atp1448
Rp1449
sS'isaiah'
p1450
g1
((lp1451
g1450
aS'zadie'
p1452
aS'zay'
p1453
atp1454
Rp1455
sS'zephaniah'
p1456
g1
((lp1457
g1456
aS'zeph'
p1458
atp1459
Rp1460
sS'leafa'
p1461
g1
((lp1462
g1461
aS'relief'
p1463
atp1464
Rp1465
sS'rodie'
p1466
g1
((lp1467
g1466
aS'rhoda'
p1468
atp1469
Rp1470
sS'caleb'
p1471
g1
((lp1472
g1471
aS'cal'
p1473
atp1474
Rp1475
sg1195
g1
((lp1476
g1193
ag1194
ag1195
aS'jennie'
p1477
aS'jane'
p1478
ag1197
atp1479
Rp1480
sS'liley'
p1481
g1
((lp1482
g1481
aS'silence'
p1483
atp1484
Rp1485
sS'corny'
p1486
g1
((lp1487
S'cornie'
p1488
aS'niel'
p1489
aS'nelle'
p1490
aS'nelly'
p1491
aS'conny'
p1492
ag1486
aS'cornelia'
p1493
aS'nelia'
p1494
aS'cornelius'
p1495
aS'con'
p1496
atp1497
Rp1498
sS'telly'
p1499
g1
((lp1500
S'aristotle'
p1501
ag1499
atp1502
Rp1503
sS'lula'
p1504
g1
((lp1505
g1504
aS'ella'
p1506
aS'lu'
p1507
aS'luella'
p1508
atp1509
Rp1510
sg1171
g1
((lp1511
S'freddy'
p1512
aS'fred'
p1513
ag1178
ag1176
ag1173
ag1174
ag1171
atp1514
Rp1515
sS'ray'
p1516
g1
((lp1517
S'raymond'
p1518
ag1516
atp1519
Rp1520
sS'kaye'
p1521
g1
((lp1522
S'kathy'
p1523
aS'katy'
p1524
aS'lena'
p1525
aS'kittie'
p1526
ag1521
aS'katelyn'
p1527
aS'kate'
p1528
aS'trina'
p1529
aS'katherine'
p1530
aS'cathy'
p1531
aS'kay'
p1532
aS'kit'
p1533
aS'katelin'
p1534
aS'cassie'
p1535
atp1536
Rp1537
sS'rudolph'
p1538
g1
((lp1539
S'dolph'
p1540
aS'rudy'
p1541
ag1538
aS'olph'
p1542
aS'rolf'
p1543
atp1544
Rp1545
sS'ditus'
p1546
g1
((lp1547
S'eppa'
p1548
aS'dite'
p1549
aS'dyche'
p1550
aS'dyce'
p1551
aS'epaphroditius'
p1552
ag1546
atp1553
Rp1554
sS'sibbell'
p1555
g1
((lp1556
S'sybill'
p1557
aS'sibbie'
p1558
ag1555
aS'sibbilla'
p1559
atp1560
Rp1561
sS'susie'
p1562
g1
((lp1563
S'suki'
p1564
aS'sue'
p1565
aS'sukey'
p1566
aS'susan'
p1567
aS'hannah'
p1568
aS'susannah'
p1569
aS'suzie'
p1570
ag1562
aS'suzanne'
p1571
atp1572
Rp1573
sg398
g1
((lp1574
S'dora'
p1575
ag398
atp1576
Rp1577
sS'maris'
p1578
g1
((lp1579
S'demerias'
p1580
aS'dea'
p1581
aS'demaris'
p1582
ag1578
aS'mary'
p1583
atp1584
Rp1585
sS'maddy'
p1586
g1
((lp1587
g1261
ag1265
ag1266
aS'madison'
p1588
ag1586
aS'madge'
p1589
aS'mattie'
p1590
aS'madeline'
p1591
aS'madelyn'
p1592
atp1593
Rp1594
sS'lamont'
p1595
g1
((lp1596
g1595
aS'monty'
p1597
atp1598
Rp1599
sg549
g1
((lp1600
g541
ag677
ag549
ag547
ag540
atp1601
Rp1602
sS'marie'
p1603
g1
((lp1604
g1399
ag1397
ag1401
ag1402
ag1403
ag1405
ag1406
ag1407
ag1408
aS'mae'
p1605
ag1410
ag1412
ag1603
ag1414
ag1415
ag1416
atp1606
Rp1607
sS'maria'
p1608
g1
((lp1609
S'mariah'
p1610
ag1397
ag1401
ag1402
ag1403
ag1405
ag1406
ag1407
ag1408
ag1409
ag1410
ag1412
ag1413
ag1414
aS'mary'
p1611
ag1608
atp1612
Rp1613
sS'bradford'
p1614
g1
((lp1615
g1614
aS'ford'
p1616
aS'brad'
p1617
atp1618
Rp1619
sS'don'
p1620
g1
((lp1621
S'dony'
p1622
aS'donald'
p1623
aS'donnie'
p1624
ag1620
aS'donny'
p1625
atp1626
Rp1627
sS'diah'
p1628
g1
((lp1629
S'obadiah'
p1630
ag860
ag1628
aS'jedediah'
p1631
aS'obie'
p1632
aS'obed'
p1633
aS'jed'
p1634
aS'dyer'
p1635
ag863
atp1636
Rp1637
sg1059
g1
((lp1638
S'dominic'
p1639
ag1057
ag1059
atp1640
Rp1641
sg1036
g1
((lp1642
g1033
ag1034
ag1035
ag1036
ag1037
ag1031
ag1038
ag1039
atp1643
Rp1644
sg1160
g1
((lp1645
S'tasha'
p1646
ag1159
ag1160
atp1647
Rp1648
sS'sheryl'
p1649
g1
((lp1650
S'cheryl'
p1651
aS'sher'
p1652
ag1649
atp1653
Rp1654
sS'mildred'
p1655
g1
((lp1656
g1655
aS'milly'
p1657
atp1658
Rp1659
sS'constance'
p1660
g1
((lp1661
g1660
aS'connie'
p1662
atp1663
Rp1664
sg514
g1
((lp1665
g512
ag510
ag513
ag514
ag515
atp1666
Rp1667
sS'agnes'
p1668
g1
((lp1669
S'inez'
p1670
aS'nessa'
p1671
aS'aggy'
p1672
ag1668
atp1673
Rp1674
sg1258
g1
((lp1675
g1255
ag1256
ag1257
ag1253
ag1258
atp1676
Rp1677
sg1203
g1
((lp1678
g1202
ag1203
ag1200
atp1679
Rp1680
sS'teresa'
p1681
g1
((lp1682
S'tessa'
p1683
aS'tess'
p1684
ag1681
aS'theresa'
p1685
aS'terry'
p1686
atp1687
Rp1688
sg295
g1
((lp1689
g289
ag290
ag291
ag287
ag292
ag294
ag295
ag296
ag297
ag298
ag299
ag300
ag301
atp1690
Rp1691
sS'deedee'
p1692
g1
((lp1693
S'nada'
p1694
aS'nadine'
p1695
ag1692
aS'deidre'
p1696
atp1697
Rp1698
sS'louisa'
p1699
g1
((lp1700
S'lois'
p1701
aS'eliza'
p1702
ag1699
aS'lou'
p1703
atp1704
Rp1705
sS'louise'
p1706
g1
((lp1707
S'eloise'
p1708
ag1706
ag1256
aS'eliza'
p1709
aS'elouise'
p1710
aS'lois'
p1711
ag1258
aS'lou'
p1712
aS'heloise'
p1713
ag1253
atp1714
Rp1715
sS'aldo'
p1716
g1
((lp1717
g1716
aS'al'
p1718
atp1719
Rp1720
sS'rick'
p1721
g1
((lp1722
g981
aS'ced'
p1723
aS'brady'
p1724
aS'broderick'
p1725
ag986
aS'brody'
p1726
ag985
aS'ricky'
p1727
aS'dick'
p1728
aS'derrick'
p1729
ag1721
aS'rich'
p1730
aS'cedric'
p1731
aS'riche'
p1732
aS'ricardo'
p1733
aS'eric'
p1734
aS'richard'
p1735
atp1736
Rp1737
sS'rich'
p1738
g1
((lp1739
S'riche'
p1740
aS'richard'
p1741
aS'dick'
p1742
ag985
ag981
aS'aldrich'
p1743
ag986
aS'rick'
p1744
ag1738
ag989
atp1745
Rp1746
sS'adolphus'
p1747
g1
((lp1748
S'dolph'
p1749
aS'ado'
p1750
ag1747
aS'adolph'
p1751
atp1752
Rp1753
sS'mena'
p1754
g1
((lp1755
S'armena'
p1756
aS'almena'
p1757
ag1754
aS'allie'
p1758
aS'arry'
p1759
atp1760
Rp1761
sS'monica'
p1762
g1
((lp1763
S'monna'
p1764
ag1762
aS'monnie'
p1765
atp1766
Rp1767
sS'roseanne'
p1768
g1
((lp1769
S'ann'
p1770
ag1768
atp1771
Rp1772
sS'cecilia'
p1773
g1
((lp1774
S'sheila'
p1775
aS'cissy'
p1776
ag1773
aS'celia'
p1777
atp1778
Rp1779
sg1064
g1
((lp1780
g1062
ag1074
ag1064
ag1065
ag1066
atp1781
Rp1782
sS'vannie'
p1783
g1
((lp1784
S'savannah'
p1785
ag1783
aS'vandalia'
p1786
aS'anna'
p1787
atp1788
Rp1789
sS'l.r.'
p1790
g1
((lp1791
S'leroy'
p1792
aS'roy'
p1793
aS'lee'
p1794
ag1790
atp1795
Rp1796
sS'christopher'
p1797
g1
((lp1798
S'chris'
p1799
aS'christina'
p1800
ag1797
aS'christine'
p1801
aS'kit'
p1802
atp1803
Rp1804
sg1071
g1
((lp1805
g1069
ag1071
atp1806
Rp1807
sS'johanna'
p1808
g1
((lp1809
g1808
aS'jo'
p1810
atp1811
Rp1812
sS'sabrina'
p1813
g1
((lp1814
g1813
aS'brina'
p1815
atp1816
Rp1817
sS'bat'
p1818
g1
((lp1819
g1818
aS'bart'
p1820
aS'meus'
p1821
aS'bartel'
p1822
aS'bartholomew'
p1823
aS'mees'
p1824
atp1825
Rp1826
sS'bab'
p1827
g1
((lp1828
S'barby'
p1829
aS'babs'
p1830
aS'barbara'
p1831
ag1827
aS'bobbie'
p1832
atp1833
Rp1834
sS'saul'
p1835
g1
((lp1836
S'sal'
p1837
aS'salmon'
p1838
aS'sol'
p1839
aS'solly'
p1840
aS'solomon'
p1841
aS'zolly'
p1842
ag1835
atp1843
Rp1844
sS'wyncha'
p1845
g1
((lp1846
S'vonnie'
p1847
aS'viney'
p1848
aS'vina'
p1849
ag1845
aS'lavonia'
p1850
aS'louvinia'
p1851
atp1852
Rp1853
sS'lodi'
p1854
g1
((lp1855
S'melody'
p1856
ag1854
atp1857
Rp1858
sS'almina'
p1859
g1
((lp1860
g1859
aS'minnie'
p1861
atp1862
Rp1863
sg318
g1
((lp1864
S'maggie'
p1865
aS'meg'
p1866
aS'gretta'
p1867
aS'midge'
p1868
aS'margaret'
p1869
aS'daisy'
p1870
aS'madge'
p1871
aS'peggy'
p1872
aS'marge'
p1873
ag318
aS'margie'
p1874
aS'margery'
p1875
aS'peg'
p1876
aS'rita'
p1877
atp1878
Rp1879
sS'clem'
p1880
g1
((lp1881
S'clement'
p1882
aS'clementine'
p1883
ag1880
atp1884
Rp1885
sS'bess'
p1886
g1
((lp1887
S'bessie'
p1888
ag289
ag290
ag291
ag287
ag292
ag294
ag295
ag296
ag1886
ag299
ag300
ag301
atp1889
Rp1890
sg1332
g1
((lp1891
g1330
ag1331
ag1328
ag1332
atp1892
Rp1893
sS'pete'
p1894
g1
((lp1895
g1894
aS'peter'
p1896
aS'pate'
p1897
atp1898
Rp1899
sS'delpha'
p1900
g1
((lp1901
g1900
aS'philadelphia'
p1902
atp1903
Rp1904
sg395
g1
((lp1905
S'dora'
p1906
ag395
atp1907
Rp1908
sS'mitch'
p1909
g1
((lp1910
S'mitchell'
p1911
ag1909
atp1912
Rp1913
sS'mur'
p1914
g1
((lp1915
S'muriel'
p1916
ag1914
atp1917
Rp1918
sg86
g1
((lp1919
g86
ag87
ag88
ag84
atp1920
Rp1921
sS'irv'
p1922
g1
((lp1923
S'irving'
p1924
ag1922
atp1925
Rp1926
sS'manola'
p1927
g1
((lp1928
g1927
aS'nonnie'
p1929
atp1930
Rp1931
sg302
g1
((lp1932
g356
aS'mel'
p1933
ag293
ag358
ag361
ag302
aS'lizzie'
p1934
aS'lisa'
p1935
aS'liz'
p1936
atp1937
Rp1938
sg728
g1
((lp1939
g727
ag719
ag728
ag724
atp1940
Rp1941
sg174
g1
((lp1942
g174
ag175
ag172
atp1943
Rp1944
sg284
g1
((lp1945
g281
ag282
ag283
ag279
ag284
atp1946
Rp1947
sS'petronella'
p1948
g1
((lp1949
g1948
aS'nellie'
p1950
atp1951
Rp1952
sS'omi'
p1953
g1
((lp1954
S'naomi'
p1955
ag1953
atp1956
Rp1957
sS'vernon'
p1958
g1
((lp1959
S'laverne'
p1960
ag1958
aS'verna'
p1961
atp1962
Rp1963
sS'newt'
p1964
g1
((lp1965
S'newton'
p1966
ag1964
atp1967
Rp1968
sS'stu'
p1969
g1
((lp1970
g1969
aS'stuart'
p1971
atp1972
Rp1973
sS'edgar'
p1974
g1
((lp1975
S'ed'
p1976
aS'eddie'
p1977
aS'eddy'
p1978
ag1974
atp1979
Rp1980
sg1126
g1
((lp1981
g1126
ag1124
ag1127
atp1982
Rp1983
sg1617
g1
((lp1984
g1614
ag1616
ag1617
atp1985
Rp1986
sS'pate'
p1987
g1
((lp1988
S'pete'
p1989
aS'pat'
p1990
aS'patrick'
p1991
aS'patsy'
p1992
ag1987
aS'peter'
p1993
aS'paddy'
p1994
atp1995
Rp1996
sS'con'
p1997
g1
((lp1998
S'conrad'
p1999
ag1489
aS'conny'
p2000
aS'corny'
p2001
ag1495
ag1997
atp2002
Rp2003
sS'rena'
p2004
g1
((lp2005
g2004
aS'irene'
p2006
aS'serena'
p2007
atp2008
Rp2009
sg1292
g1
((lp2010
g1291
ag1289
ag1292
atp2011
Rp2012
sS'essa'
p2013
g1
((lp2014
S'vanessa'
p2015
ag2013
aS'vanna'
p2016
aS'nessa'
p2017
atp2018
Rp2019
sS'sullivan'
p2020
g1
((lp2021
g2020
aS'sully'
p2022
aS'van'
p2023
atp2024
Rp2025
sg648
g1
((lp2026
S'matt'
p2027
ag646
aS'thias'
p2028
ag648
aS'matthew'
p2029
aS'mattie'
p2030
ag647
aS'thys'
p2031
ag644
atp2032
Rp2033
sS'mitzie'
p2034
g1
((lp2035
S'mittie'
p2036
aS'mitzi'
p2037
aS'miriam'
p2038
ag2034
aS'mitty'
p2039
aS'mimi'
p2040
atp2041
Rp2042
sS'karen'
p2043
g1
((lp2044
S'karon'
p2045
ag2043
aS'happy'
p2046
aS'carrie'
p2047
aS'karonhappuck'
p2048
atp2049
Rp2050
sS'hephsibah'
p2051
g1
((lp2052
g2051
aS'hipsie'
p2053
atp2054
Rp2055
sS'parmelia'
p2056
g1
((lp2057
S'melia'
p2058
aS'amelia'
p2059
aS'milly'
p2060
ag2056
atp2061
Rp2062
sg1022
g1
((lp2063
g1022
ag1017
ag1019
aS'lucy'
p2064
ag1021
atp2065
Rp2066
sS'cilla'
p2067
g1
((lp2068
S'prissy'
p2069
aS'cissy'
p2070
ag2067
aS'priscilla'
p2071
aS'cicely'
p2072
atp2073
Rp2074
sS'katarina'
p2075
g1
((lp2076
S'catherine'
p2077
ag2075
aS'tina'
p2078
atp2079
Rp2080
sg2071
g1
((lp2081
S'cilla'
p2082
ag2070
ag2069
ag2071
atp2083
Rp2084
sS'appoline'
p2085
g1
((lp2086
g2085
aS'appie'
p2087
aS'appy'
p2088
atp2089
Rp2090
sg934
g1
((lp2091
g932
ag934
atp2092
Rp2093
sS'sigfrid'
p2094
g1
((lp2095
g2094
aS'sid'
p2096
atp2097
Rp2098
sS'cyrus'
p2099
g1
((lp2100
S'cy'
p2101
ag2099
atp2102
Rp2103
sg81
g1
((lp2104
g81
ag79
atp2105
Rp2106
sS'tine'
p2107
g1
((lp2108
S'martine'
p2109
ag2107
atp2110
Rp2111
sS'tina'
p2112
g1
((lp2113
g4
aS'ann'
p2114
ag2077
aS'kristine'
p2115
aS'chrissy'
p2116
ag2075
aS'gussie'
p2117
aS'kris'
p2118
aS'kristy'
p2119
ag634
ag2112
aS'gatsy'
p2120
aS'christiana'
p2121
ag633
aS'christy'
p2122
aS'chris'
p2123
aS'crissy'
p2124
ag636
aS'christina'
p2125
aS'christine'
p2126
aS'augusta'
p2127
aS'martina'
p2128
aS'ernest'
p2129
aS'aggy'
p2130
atp2131
Rp2132
sg1321
g1
((lp2133
g1321
ag1319
atp2134
Rp2135
sS'hosie'
p2136
g1
((lp2137
S'hosea'
p2138
ag2136
aS'hosey'
p2139
atp2140
Rp2141
sS'life'
p2142
g1
((lp2143
g2142
aS'eliphalel'
p2144
atp2145
Rp2146
sS'sydney'
p2147
g1
((lp2148
g2147
aS'sid'
p2149
atp2150
Rp2151
sS'irving'
p2152
g1
((lp2153
S'irvin'
p2154
ag2152
ag1922
atp2155
Rp2156
sS'dave'
p2157
g1
((lp2158
g2157
aS'day'
p2159
aS'davey'
p2160
aS'david'
p2161
atp2162
Rp2163
sS'rosabel'
p2164
g1
((lp2165
g2164
aS'roz'
p2166
aS'rose'
p2167
aS'rosa'
p2168
aS'belle'
p2169
atp2170
Rp2171
sS'evelina'
p2172
g1
((lp2173
S'evelyn'
p2174
ag2172
aS'ev'
p2175
aS'eve'
p2176
atp2177
Rp2178
sg801
g1
((lp2179
g799
ag800
ag801
ag797
ag802
atp2180
Rp2181
sS'lionel'
p2182
g1
((lp2183
S'leon'
p2184
ag2182
atp2185
Rp2186
sS'adela'
p2187
g1
((lp2188
g2187
aS'adelaide'
p2189
aS'delilah'
p2190
aS'della'
p2191
atp2192
Rp2193
sg807
g1
((lp2194
g807
aS'danny'
p2195
ag809
aS'dan'
p2196
atp2197
Rp2198
sS'govie'
p2199
g1
((lp2200
g2199
aS'governor'
p2201
atp2202
Rp2203
sg1210
g1
((lp2204
g1208
ag1209
ag1210
ag1211
aS'sylvester'
p2205
ag1213
ag1206
ag1214
ag1215
ag1216
ag1217
atp2206
Rp2207
sS'sampson'
p2208
g1
((lp2209
S'sam'
p2210
ag2208
atp2211
Rp2212
sS'delly'
p2213
g1
((lp2214
S'della'
p2215
aS'dilly'
p2216
aS'deliverance'
p2217
ag2213
atp2218
Rp2219
sS'thomasa'
p2220
g1
((lp2221
S'tamzine'
p2222
ag2220
atp2223
Rp2224
sS'claes'
p2225
g1
((lp2226
g2225
aS'nick'
p2227
aS'nicholas'
p2228
aS'claas'
p2229
atp2230
Rp2231
sg396
g1
((lp2232
S'dora'
p2233
ag396
atp2234
Rp2235
sg2191
g1
((lp2236
g119
ag110
aS'rhodella'
p2237
ag2213
ag112
aS'dell'
p2238
aS'addy'
p2239
ag126
ag2187
ag2216
ag118
ag2217
ag120
ag114
ag122
ag2191
ag125
ag127
atp2240
Rp2241
sg741
g1
((lp2242
g741
aS'ron'
p2243
ag742
ag744
ag743
ag747
ag748
aS'ronnie'
p2244
atp2245
Rp2246
sg1651
g1
((lp2247
g1651
ag1649
atp2248
Rp2249
sS'archilles'
p2250
g1
((lp2251
g2250
aS'kill'
p2252
aS'killis'
p2253
atp2254
Rp2255
sg850
g1
((lp2256
g847
ag850
aS'jack'
p2257
atp2258
Rp2259
sS'elmira'
p2260
g1
((lp2261
g2260
aS'ellie'
p2262
aS'elly'
p2263
aS'mira'
p2264
atp2265
Rp2266
sS'jess'
p2267
g1
((lp2268
S'jane'
p2269
aS'jessie'
p2270
aS'janet'
p2271
ag2267
atp2272
Rp2273
sg27
g1
((lp2274
g27
ag25
ag28
atp2275
Rp2276
sS'griselda'
p2277
g1
((lp2278
g2277
aS'grissel'
p2279
atp2280
Rp2281
sg885
g1
((lp2282
g874
aS'isabella'
p2283
ag878
ag879
aS'belle'
p2284
ag881
aS'bella'
p2285
ag882
ag884
ag885
ag886
atp2286
Rp2287
sg160
g1
((lp2288
g159
ag160
ag161
ag157
atp2289
Rp2290
sS'belle'
p2291
g1
((lp2292
g878
ag2168
ag882
aS'ara'
p2293
ag2166
ag885
ag874
ag2291
ag872
aS'linda'
p2294
aS'arry'
p2295
ag879
aS'belinda'
p2296
ag2164
ag875
ag876
ag877
ag881
aS'rosabella'
p2297
ag884
ag2167
ag886
atp2298
Rp2299
sg429
g1
((lp2300
g424
aS'jeremiah'
p2301
ag426
ag427
ag428
ag429
aS'jereme'
p2302
ag430
atp2303
Rp2304
sS'roland'
p2305
g1
((lp2306
S'rolly'
p2307
ag2305
aS'lanny'
p2308
aS'orlando'
p2309
aS'rollo'
p2310
atp2311
Rp2312
sS'mackenzie'
p2313
g1
((lp2314
S'kenzy'
p2315
ag2313
aS'mack'
p2316
aS'mac'
p2317
atp2318
Rp2319
sS'dotha'
p2320
g1
((lp2321
g2320
aS'dotty'
p2322
atp2323
Rp2324
sg365
g1
((lp2325
S'camille'
p2326
ag354
ag351
ag359
ag364
ag365
ag367
aS'cammie'
p2327
ag368
atp2328
Rp2329
sg2120
g1
((lp2330
g4
ag2117
ag2127
ag2112
ag2130
ag2120
atp2331
Rp2332
sS'hank'
p2333
g1
((lp2334
g2333
aS'henrietta'
p2335
ag626
aS'etta'
p2336
aS'harry'
p2337
aS'etty'
p2338
aS'henry'
p2339
aS'retta'
p2340
aS'nettie'
p2341
atp2342
Rp2343
sS'nik'
p2344
g1
((lp2345
S'nick'
p2346
aS'nicholas'
p2347
ag2344
atp2348
Rp2349
sS'cindy'
p2350
g1
((lp2351
S'lou'
p2352
aS'cynthia'
p2353
ag1016
aS'cinderella'
p2354
aS'lucy'
p2355
aS'cintha'
p2356
aS'lu'
p2357
aS'cinderlla'
p2358
ag2350
aS'rilla'
p2359
aS'arilla'
p2360
aS'rella'
p2361
atp2362
Rp2363
sg879
g1
((lp2364
g874
ag2283
ag878
ag879
ag2284
ag881
ag2285
ag882
ag884
ag885
ag886
atp2365
Rp2366
sS'ezideen'
p2367
g1
((lp2368
g2367
aS'ez'
p2369
atp2370
Rp2371
sS'ella'
p2372
g1
((lp2373
g1380
ag1508
ag2372
ag1385
ag1507
aS'gabby'
p2374
aS'ellen'
p2375
aS'helen'
p2376
ag1504
aS'gabriella'
p2377
aS'gabrielle'
p2378
ag894
atp2379
Rp2380
sg397
g1
((lp2381
S'dora'
p2382
ag397
atp2383
Rp2384
sS'lyndon'
p2385
g1
((lp2386
S'lindy'
p2387
ag2385
aS'lynn'
p2388
atp2389
Rp2390
sS'kit'
p2391
g1
((lp2392
S'kathy'
p2393
aS'katy'
p2394
aS'lena'
p2395
aS'christian'
p2396
aS'kittie'
p2397
aS'kaye'
p2398
aS'catherine'
p2399
ag2391
aS'cathleen'
p2400
aS'trina'
p2401
aS'chris'
p2402
ag1530
aS'kathleen'
p2403
aS'cathy'
p2404
aS'christopher'
p2405
aS'kay'
p2406
aS'kate'
p2407
aS'cassie'
p2408
atp2409
Rp2410
sS'elly'
p2411
g1
((lp2412
g2260
aS'ellie'
p2413
ag2411
ag2264
atp2414
Rp2415
sS'josey'
p2416
g1
((lp2417
S'josephine'
p2418
ag2416
aS'jody'
p2419
aS'jo'
p2420
aS'fina'
p2421
aS'josophine'
p2422
aS'joey'
p2423
atp2424
Rp2425
sS'kim'
p2426
g1
((lp2427
S'kimberly'
p2428
ag2426
aS'kimberley'
p2429
atp2430
Rp2431
sS'lucas'
p2432
g1
((lp2433
S'luke'
p2434
ag2432
atp2435
Rp2436
sS'charlie'
p2437
g1
((lp2438
g2437
aS'charles'
p2439
aS'chuck'
p2440
aS'carl'
p2441
aS'chick'
p2442
atp2443
Rp2444
sg1631
g1
((lp2445
g1635
ag1631
ag1628
ag1634
atp2446
Rp2447
sg884
g1
((lp2448
g874
ag2283
ag878
ag879
ag2284
ag881
ag2285
ag882
ag884
ag885
ag886
atp2449
Rp2450
sS'eph'
p2451
g1
((lp2452
S'ephraim'
p2453
ag2451
atp2454
Rp2455
sS'jean'
p2456
g1
((lp2457
S'jeanette'
p2458
ag831
aS'jenny'
p2459
aS'eve'
p2460
aS'genevieve'
p2461
ag826
ag830
ag828
ag2456
aS'nettie'
p2462
aS'jeannie'
p2463
aS'janet'
p2464
atp2465
Rp2466
sS'azariah'
p2467
g1
((lp2468
S'riah'
p2469
ag2467
aS'aze'
p2470
atp2471
Rp2472
sS'left'
p2473
g1
((lp2474
S'eliphalet'
p2475
ag2473
atp2476
Rp2477
sS'anselm'
p2478
g1
((lp2479
S'ansel'
p2480
aS'selma'
p2481
aS'anse'
p2482
ag2478
aS'ance'
p2483
atp2484
Rp2485
sS'pheney'
p2486
g1
((lp2487
S'josephine'
p2488
ag2486
atp2489
Rp2490
sS'vic'
p2491
g1
((lp2492
g2491
aS'vinnie'
p2493
aS'vince'
p2494
aS'vicki'
p2495
aS'vin'
p2496
aS'victoria'
p2497
aS'vinny'
p2498
aS'torie'
p2499
aS'vincent'
p2500
aS'vicky'
p2501
aS'tory'
p2502
ag183
aS'victor'
p2503
atp2504
Rp2505
sg1966
g1
((lp2506
g1966
ag1964
atp2507
Rp2508
sS'roderick'
p2509
g1
((lp2510
g2509
aS'rod'
p2511
aS'erick'
p2512
aS'rickie'
p2513
atp2514
Rp2515
sS'campbell'
p2516
g1
((lp2517
g2516
aS'cam'
p2518
atp2519
Rp2520
sS'eli'
p2521
g1
((lp2522
g1048
ag2521
aS'lias'
p2523
aS'lish'
p2524
ag1050
aS'elisha'
p2525
aS'elias'
p2526
aS'lee'
p2527
atp2528
Rp2529
sS'hal'
p2530
g1
((lp2531
g624
aS'harold'
p2532
ag2530
aS'howard'
p2533
aS'harry'
p2534
ag2339
aS'howie'
p2535
atp2536
Rp2537
sS'ham'
p2538
g1
((lp2539
S'hamilton'
p2540
ag2538
atp2541
Rp2542
sS'hetty'
p2543
g1
((lp2544
g150
ag152
aS'heather'
p2545
aS'mabel'
p2546
aS'mehitabel'
p2547
ag2543
ag153
ag907
ag908
atp2548
Rp2549
sg463
g1
((lp2550
g460
ag462
ag463
atp2551
Rp2552
sg2461
g1
((lp2553
g2459
ag2456
ag2460
ag2461
atp2554
Rp2555
sg2401
g1
((lp2556
g2393
ag2394
ag2395
ag2403
ag2397
ag2398
ag2399
ag2391
ag2400
ag2401
ag1530
ag2404
ag2406
ag2407
ag2408
atp2557
Rp2558
sS'richie'
p2559
g1
((lp2560
S'richard'
p2561
ag2559
atp2562
Rp2563
sg2015
g1
((lp2564
g2015
ag2013
ag2016
ag2017
atp2565
Rp2566
sg484
g1
((lp2567
g480
ag482
ag483
ag484
atp2568
Rp2569
sg1589
g1
((lp2570
g1261
ag315
ag312
ag316
ag1589
ag318
ag319
ag1325
ag320
ag1265
ag321
ag322
ag1591
ag1266
ag323
ag324
ag334
ag326
ag1586
ag327
ag328
ag329
ag330
ag331
ag332
ag333
ag325
ag335
ag1592
atp2571
Rp2572
sS'zeely'
p2573
g1
((lp2574
g2573
aS'bezaleel'
p2575
atp2576
Rp2577
sg331
g1
((lp2578
g314
ag315
ag316
ag317
ag318
ag319
ag320
ag321
ag322
ag312
ag323
ag324
ag325
ag326
ag327
ag328
ag329
ag330
ag331
ag332
ag333
ag334
ag335
atp2579
Rp2580
sS'bobby'
p2581
g1
((lp2582
S'bert'
p2583
ag1033
ag1034
ag2581
ag1036
aS'rod'
p2584
ag1037
aS'robby'
p2585
aS'hodge'
p2586
aS'rupert'
p2587
aS'robin'
p2588
aS'bertie'
p2589
aS'roger'
p2590
aS'roge'
p2591
ag1031
aS'bob'
p2592
aS'rob'
p2593
aS'rodger'
p2594
atp2595
Rp2596
sg2309
g1
((lp2597
g2307
ag2305
ag2308
ag2309
ag2310
atp2598
Rp2599
sS'alice'
p2600
g1
((lp2601
g302
ag1934
ag2600
aS'allie'
p2602
aS'lisa'
p2603
ag1936
aS'elsie'
p2604
atp2605
Rp2606
sS'steph'
p2607
g1
((lp2608
S'stephie'
p2609
ag2607
aS'steve'
p2610
aS'annie'
p2611
aS'steven'
p2612
aS'stephen'
p2613
aS'stephanie'
p2614
atp2615
Rp2616
sS'gwendolyn'
p2617
g1
((lp2618
S'gwen'
p2619
ag2617
aS'wendy'
p2620
atp2621
Rp2622
sS'thaney'
p2623
g1
((lp2624
S'beth'
p2625
aS'bethena'
p2626
ag2623
atp2627
Rp2628
sS'amos'
p2629
g1
((lp2630
g2629
aS'mose'
p2631
aS'moses'
p2632
aS'moss'
p2633
atp2634
Rp2635
sS'sebastian'
p2636
g1
((lp2637
g2636
aS'sebby'
p2638
aS'seb'
p2639
atp2640
Rp2641
sg1883
g1
((lp2642
S'clement'
p2643
ag1883
aS'clem'
p2644
atp2645
Rp2646
sS'webb'
p2647
g1
((lp2648
g2647
aS'webster'
p2649
atp2650
Rp2651
sS'ola'
p2652
g1
((lp2653
g2652
aS'viola'
p2654
aS'vi'
p2655
atp2656
Rp2657
sS'lemuel'
p2658
g1
((lp2659
g2658
aS'lem'
p2660
atp2661
Rp2662
sg1196
g1
((lp2663
S'jennie'
p2664
aS'jenny'
p2665
ag1196
atp2666
Rp2667
sg1743
g1
((lp2668
g1743
ag1738
ag1740
atp2669
Rp2670
sg2356
g1
((lp2671
g2356
ag2353
aS'cindy'
p2672
atp2673
Rp2674
sg1623
g1
((lp2675
g1622
ag1623
ag1624
ag1620
ag1625
atp2676
Rp2677
sg2586
g1
((lp2678
g2594
aS'bobby'
p2679
ag2586
ag2584
ag2590
ag2585
ag2587
ag2588
ag2591
atp2680
Rp2681
sS'veda'
p2682
g1
((lp2683
S'laveda'
p2684
ag2682
atp2685
Rp2686
sS'columbus'
p2687
g1
((lp2688
g2687
aS'clum'
p2689
atp2690
Rp2691
sS'cora'
p2692
g1
((lp2693
S'corinne'
p2694
ag2692
aS'ora'
p2695
atp2696
Rp2697
sg1404
g1
((lp2698
g523
ag1447
ag1404
ag1400
ag1411
ag525
atp2699
Rp2700
sg1017
g1
((lp2701
g1022
ag1017
ag1019
ag2064
ag1021
atp2702
Rp2703
sS'burt'
p2704
g1
((lp2705
S'bert'
p2706
aS'egbert'
p2707
ag2704
atp2708
Rp2709
sg999
g1
((lp2710
S'alex'
p2711
ag995
ag998
ag999
aS'sandy'
p2712
ag1001
atp2713
Rp2714
sS'cory'
p2715
g1
((lp2716
S'coco'
p2717
aS'cordy'
p2718
ag2715
aS'ree'
p2719
atp2720
Rp2721
sS'seph'
p2722
g1
((lp2723
g2722
aS'persephone'
p2724
aS'sephy'
p2725
atp2726
Rp2727
sS'algy'
p2728
g1
((lp2729
S'algernon'
p2730
ag2728
atp2731
Rp2732
sg515
g1
((lp2733
g510
ag513
ag512
ag2320
ag514
ag515
atp2734
Rp2735
sS'nerva'
p2736
g1
((lp2737
S'manerva'
p2738
aS'nervie'
p2739
ag2736
aS'eve'
p2740
aS'minerva'
p2741
atp2742
Rp2743
sS'kissy'
p2744
g1
((lp2745
g2744
aS'calista'
p2746
atp2747
Rp2748
sS'cyphorus'
p2749
g1
((lp2750
g2749
aS'osaforus'
p2751
aS'syphorous'
p2752
aS'one'
p2753
aS'cy'
p2754
aS'osaforum'
p2755
aS'onicyphorous'
p2756
atp2757
Rp2758
sg1839
g1
((lp2759
g1837
ag1838
ag1839
ag1840
ag1841
ag1842
ag1835
atp2760
Rp2761
sS'lois'
p2762
g1
((lp2763
g1699
aS'eloise'
p2764
aS'louise'
p2765
ag1702
aS'elouise'
p2766
ag2762
ag1712
aS'heloise'
p2767
atp2768
Rp2769
sS'abel'
p2770
g1
((lp2771
g2770
aS'ab'
p2772
aS'eb'
p2773
aS'ebbie'
p2774
aS'abe'
p2775
atp2776
Rp2777
sS'manoah'
p2778
g1
((lp2779
S'noah'
p2780
ag2778
atp2781
Rp2782
sS'anderson'
p2783
g1
((lp2784
g2783
aS'andy'
p2785
atp2786
Rp2787
sS'joseph'
p2788
g1
((lp2789
S'jody'
p2790
ag2788
aS'joe'
p2791
aS'jos'
p2792
aS'joey'
p2793
atp2794
Rp2795
sg617
g1
((lp2796
g615
ag616
ag613
ag617
ag618
ag619
atp2797
Rp2798
sS'jane'
p2799
g1
((lp2800
S'angelica'
p2801
ag831
aS'angelina'
p2802
ag2271
aS'angel'
p2803
aS'angeline'
p2804
aS'jinsy'
p2805
ag1194
aS'angela'
p2806
ag826
ag2267
ag830
ag1195
ag1193
ag2799
ag829
aS'angie'
p2807
ag1197
ag2463
aS'jincy'
p2808
aS'jeanne'
p2809
atp2810
Rp2811
sg1338
g1
((lp2812
g1337
ag1335
ag1338
ag1339
atp2813
Rp2814
sg2046
g1
((lp2815
g2045
ag2043
ag2046
ag2047
ag2048
atp2816
Rp2817
sg1368
g1
((lp2818
g2707
ag997
ag1239
ag1371
aS'hubert'
p2819
aS'allie'
p2820
aS'norby'
p2821
aS'elbert'
p2822
ag710
aS'hugh'
p2823
ag1240
aS'alberta'
p2824
aS'gilbert'
p2825
aS'gil'
p2826
ag1368
aS'hub'
p2827
aS'herb'
p2828
ag1366
ag2704
aS'bertie'
p2829
ag1237
ag1236
ag992
ag1233
ag2581
aS'bertram'
p2830
ag1369
aS'norbert'
p2831
aS'herbert'
p2832
aS'will'
p2833
ag1370
ag2592
ag1339
atp2834
Rp2835
sg534
g1
((lp2836
g532
aS'nora'
p2837
ag548
ag534
atp2838
Rp2839
sg2315
g1
((lp2840
g2315
ag2313
ag2316
ag2317
atp2841
Rp2842
sg282
g1
((lp2843
g281
ag282
ag283
ag279
ag284
atp2844
Rp2845
sS'keziah'
p2846
g1
((lp2847
S'kizza'
p2848
aS'kizzie'
p2849
ag2846
atp2850
Rp2851
sS'crys'
p2852
g1
((lp2853
S'chris'
p2854
aS'crystal'
p2855
aS'tal'
p2856
aS'stal'
p2857
ag2852
atp2858
Rp2859
sS'melanie'
p2860
g1
((lp2861
g2860
aS'mellie'
p2862
atp2863
Rp2864
sS'barticus'
p2865
g1
((lp2866
g2865
aS'bart'
p2867
atp2868
Rp2869
sg1548
g1
((lp2870
g1548
ag1549
ag1550
ag1551
ag1552
ag1546
atp2871
Rp2872
sS'emil'
p2873
g1
((lp2874
g2873
aS'emily'
p2875
atp2876
Rp2877
sg2470
g1
((lp2878
g2469
ag2467
ag2470
atp2879
Rp2880
sg2855
g1
((lp2881
g2854
ag2855
ag2856
ag2857
ag2852
atp2882
Rp2883
sS'wilhelmina'
p2884
g1
((lp2885
g2884
aS'mina'
p2886
aS'wilma'
p2887
aS'willie'
p2888
aS'minnie'
p2889
atp2890
Rp2891
sg2739
g1
((lp2892
g2738
ag2739
ag2736
ag2740
ag2741
atp2893
Rp2894
sg1182
g1
((lp2895
S'freddie'
p2896
aS'frederica'
p2897
ag1182
aS'fred'
p2898
aS'freddy'
p2899
ag1177
atp2900
Rp2901
sg2028
g1
((lp2902
g2027
aS'matthias'
p2903
ag2028
aS'matty'
p2904
ag2029
ag2030
ag2031
atp2905
Rp2906
sS'ezekiel'
p2907
g1
((lp2908
S'ez'
p2909
ag2907
aS'zeke'
p2910
atp2911
Rp2912
sS'trix'
p2913
g1
((lp2914
g2913
aS'beatrice'
p2915
aS'trisha'
p2916
aS'bea'
p2917
aS'trixie'
p2918
atp2919
Rp2920
sS'cassie'
p2921
g1
((lp2922
g2394
aS'carrie'
p2923
aS'carolyn'
p2924
ag2399
ag2406
aS'sandy'
p2925
aS'cassandra'
p2926
ag2397
ag2398
ag2407
ag2401
ag2921
aS'caroline'
p2927
aS'carole'
p2928
ag2393
ag2395
ag2391
ag1530
aS'sandra'
p2929
aS'carol'
p2930
aS'lynn'
p2931
aS'carolann'
p2932
ag2400
ag2403
ag2404
atp2933
Rp2934
sg127
g1
((lp2935
g2190
ag2238
ag2239
aS'adela'
p2936
ag118
ag120
ag127
ag123
atp2937
Rp2938
sS'leet'
p2939
g1
((lp2940
S'philetus'
p2941
ag2939
aS'phil'
p2942
atp2943
Rp2944
sg2821
g1
((lp2945
S'bert'
p2946
ag2821
ag2831
atp2947
Rp2948
sS'theotha'
p2949
g1
((lp2950
S'otha'
p2951
ag2949
atp2952
Rp2953
sg1302
g1
((lp2954
g1302
ag1303
ag1300
atp2955
Rp2956
sg1543
g1
((lp2957
S'rudolphus'
p2958
ag1538
ag1540
ag1542
ag1543
ag1541
atp2959
Rp2960
sg1684
g1
((lp2961
S'tessie'
p2962
aS'teresa'
p2963
ag1685
aS'thirza'
p2964
aS'tessa'
p2965
aS'terry'
p2966
aS'tracy'
p2967
aS'thursa'
p2968
ag1684
atp2969
Rp2970
sS'mervin'
p2971
g1
((lp2972
g2971
aS'merv'
p2973
atp2974
Rp2975
sg1410
g1
((lp2976
g1399
ag1397
ag1401
ag1402
ag1403
ag1405
ag1406
ag1407
ag1408
ag1409
ag1410
ag1412
ag1413
ag1414
ag1415
ag1416
atp2977
Rp2978
sg1112
g1
((lp2979
g1110
aS'mandy'
p2980
ag1109
ag1112
atp2981
Rp2982
sg1552
g1
((lp2983
g1548
ag1549
ag1550
ag1551
ag1552
ag1546
atp2984
Rp2985
sS'loren'
p2986
g1
((lp2987
S'lorenzo'
p2988
ag2986
atp2989
Rp2990
sS'beda'
p2991
g1
((lp2992
S'obed'
p2993
ag2991
aS'beedy'
p2994
aS'obedience'
p2995
aS'biddie'
p2996
atp2997
Rp2998
sS'justus'
p2999
g1
((lp3000
g2999
aS'justin'
p3001
aS'justina'
p3002
atp3003
Rp3004
sg2400
g1
((lp3005
S'kathy'
p3006
aS'katy'
p3007
aS'lena'
p3008
aS'kittie'
p3009
aS'catherine'
p3010
aS'kit'
p3011
ag2400
aS'trina'
p3012
aS'cathy'
p3013
aS'kay'
p3014
aS'cassie'
p3015
atp3016
Rp3017
sg740
g1
((lp3018
g739
aS'naldo'
p3019
ag740
ag741
ag742
ag743
ag744
ag745
ag746
ag747
aS'cam'
p3020
aS'cameron'
p3021
ag748
ag737
aS'ronny'
p3022
atp3023
Rp3024
sg2941
g1
((lp3025
g2941
ag2939
ag2942
atp3026
Rp3027
sS'rob'
p3028
g1
((lp3029
g1033
ag1034
aS'bobby'
p3030
ag1036
ag3028
ag1031
aS'bob'
p3031
aS'robert'
p3032
atp3033
Rp3034
sg1274
g1
((lp3035
g1271
ag1273
ag1274
ag1275
ag1276
atp3036
Rp3037
sg2511
g1
((lp3038
g2591
ag2679
ag2586
ag2511
ag2513
ag2509
ag2590
ag2594
ag2585
ag2587
ag2588
ag2512
atp3039
Rp3040
sg1588
g1
((lp3041
g1588
ag1590
aS'maddy'
p3042
atp3043
Rp3044
sS'laura'
p3045
g1
((lp3046
g3045
aS'laurinda'
p3047
aS'lawrence'
p3048
atp3049
Rp3050
sg1793
g1
((lp3051
g1792
ag1793
ag1794
ag1790
atp3052
Rp3053
sg2166
g1
((lp3054
g2164
aS'rosie'
p3055
ag813
aS'roseanna'
p3056
ag2167
aS'ann'
p3057
ag2168
aS'roseann'
p3058
ag2297
ag2166
ag2169
ag815
ag164
atp3059
Rp3060
sg468
g1
((lp3061
g1399
ag1397
ag466
ag469
ag1401
ag1402
ag1403
ag1405
ag1406
ag1407
ag1408
ag468
ag1410
ag1409
ag1413
ag1414
ag1415
ag1416
atp3062
Rp3063
sg1371
g1
((lp3064
g1366
ag1369
ag1370
ag1371
ag1368
atp3065
Rp3066
sg341
g1
((lp3067
g341
aS'dahl'
p3068
atp3069
Rp3070
sg1209
g1
((lp3071
g1209
aS'sly'
p3072
ag1212
ag1213
aS'syl'
p3073
aS'vester'
p3074
aS'si'
p3075
ag1217
atp3076
Rp3077
sS'marissa'
p3078
g1
((lp3079
S'rissa'
p3080
ag3078
atp3081
Rp3082
sg2730
g1
((lp3083
g2730
ag2728
atp3084
Rp3085
sS'allisandra'
p3086
g1
((lp3087
g3086
aS'allie'
p3088
atp3089
Rp3090
sS'middy'
p3091
g1
((lp3092
S'maud'
p3093
ag3091
atp3094
Rp3095
sg2361
g1
((lp3096
g2360
ag2354
ag2361
ag2350
ag2359
atp3097
Rp3098
sg2707
g1
((lp3099
g2706
ag2707
ag2704
atp3100
Rp3101
sg2154
g1
((lp3102
g2154
ag2152
atp3103
Rp3104
sg411
g1
((lp3105
S'nonie'
p3106
aS'sue'
p3107
aS'susie'
p3108
aS'susan'
p3109
ag411
ag1569
aS'nan'
p3110
aS'jo'
p3111
aS'nanny'
p3112
ag1570
ag1225
aS'jody'
p3113
ag1566
aS'joan'
p3114
ag414
aS'joanna'
p3115
atp3116
Rp3117
sS'scotty'
p3118
g1
((lp3119
g1442
ag1440
ag3118
ag1438
aS'scott'
p3120
aS'prescott'
p3121
aS'pres'
p3122
atp3123
Rp3124
sg117
g1
((lp3125
g117
ag111
aS'dell'
p3126
aS'addy'
p3127
aS'philadelphia'
p3128
aS'adele'
p3129
ag124
atp3130
Rp3131
sg346
g1
((lp3132
g346
aS'zach'
p3133
aS'zachariah'
p3134
ag348
atp3135
Rp3136
sg329
g1
((lp3137
g488
ag320
ag489
ag490
ag323
ag330
ag316
ag326
ag491
ag492
ag319
ag493
ag494
ag329
atp3138
Rp3139
sg2335
g1
((lp3140
g2333
ag2335
ag2336
ag2338
ag2340
ag2341
atp3141
Rp3142
sS'salvador'
p3143
g1
((lp3144
g3143
aS'sal'
p3145
atp3146
Rp3147
sS'ollie'
p3148
g1
((lp3149
S'oliver'
p3150
aS'livia'
p3151
ag3148
aS'nollie'
p3152
aS'olivia'
p3153
aS'olive'
p3154
atp3155
Rp3156
sg1861
g1
((lp3157
g2886
ag27
ag1412
ag25
ag1859
ag1407
ag1403
aS'elminie'
p3158
ag1415
aS'minerva'
p3159
ag1401
ag1402
ag1405
ag1408
ag1409
ag1410
ag1413
ag1416
ag1399
ag1397
ag2888
ag1861
ag2884
ag2887
ag1414
atp3160
Rp3161
sS'gus'
p3162
g1
((lp3163
g1279
aS'august'
p3164
aS'gussie'
p3165
aS'augustus'
p3166
ag3162
ag12
ag15
atp3167
Rp3168
sS'ezra'
p3169
g1
((lp3170
g3169
aS'ez'
p3171
atp3172
Rp3173
sg259
g1
((lp3174
g257
ag255
ag258
ag259
atp3175
Rp3176
sS'samyra'
p3177
g1
((lp3178
S'myra'
p3179
ag3177
atp3180
Rp3181
sS'sulie'
p3182
g1
((lp3183
S'ursula'
p3184
ag3182
aS'sula'
p3185
atp3186
Rp3187
sg2916
g1
((lp3188
g2917
ag2915
aS'patricia'
p3189
ag2918
ag2913
ag2916
atp3190
Rp3191
sS'colie'
p3192
g1
((lp3193
g3192
aS'cole'
p3194
atp3195
Rp3196
sS'alfy'
p3197
g1
((lp3198
S'freddy'
p3199
ag3197
aS'freda'
p3200
aS'alfreda'
p3201
aS'frieda'
p3202
atp3203
Rp3204
sS'junius'
p3205
g1
((lp3206
S'june'
p3207
ag3205
atp3208
Rp3209
sS'simeon'
p3210
g1
((lp3211
S'si'
p3212
ag3210
aS'sion'
p3213
atp3214
Rp3215
sS'barbie'
p3216
g1
((lp3217
S'barbara'
p3218
ag3216
atp3219
Rp3220
sg767
g1
((lp3221
g289
aS'elizabeth'
p3222
ag291
aS'louise'
p3223
ag287
ag767
ag1703
ag1701
ag294
ag295
ag1699
ag296
ag297
ag298
ag299
ag300
ag301
atp3224
Rp3225
sg2962
g1
((lp3226
g2962
aS'theresa'
p3227
ag2964
ag2965
ag2966
ag2967
ag2968
aS'tess'
p3228
atp3229
Rp3230
sS'addy'
p3231
g1
((lp3232
g108
ag109
ag111
ag113
ag106
ag3231
ag115
ag117
aS'adele'
p3233
ag120
aS'ada'
p3234
ag123
ag124
ag127
atp3235
Rp3236
sS'ophi'
p3237
g1
((lp3238
g3237
aS'theophilus'
p3239
atp3240
Rp3241
sS'l.b.'
p3242
g1
((lp3243
S'little'
p3244
aS'berry'
p3245
ag3242
aS'littleberry'
p3246
atp3247
Rp3248
sg2802
g1
((lp3249
g2801
ag2802
ag2803
ag2804
ag2806
ag2799
ag2807
aS'lina'
p3250
atp3251
Rp3252
sS'aline'
p3253
g1
((lp3254
S'adeline'
p3255
ag3253
atp3256
Rp3257
sg2804
g1
((lp3258
g2801
ag2802
ag2803
ag2804
ag2806
ag2799
ag2807
atp3259
Rp3260
sS'pernetta'
p3261
g1
((lp3262
g3261
aS'nettie'
p3263
atp3264
Rp3265
sS'elsey'
p3266
g1
((lp3267
S'elze'
p3268
ag714
aS'ellswood'
p3269
ag3266
aS'elsie'
p3270
atp3271
Rp3272
sg1580
g1
((lp3273
S'dea'
p3274
ag1580
aS'maris'
p3275
aS'mary'
p3276
atp3277
Rp3278
sg147
g1
((lp3279
g142
ag144
aS'jayme'
p3280
ag146
ag147
atp3281
Rp3282
sS'dee'
p3283
g1
((lp3284
g119
aS'deanne'
p3285
aS'ann'
p3286
aS'dell'
p3287
ag3283
aS'audrey'
p3288
ag114
ag125
aS'della'
p3289
atp3290
Rp3291
sS'franklin'
p3292
g1
((lp3293
S'frank'
p3294
ag3292
aS'fran'
p3295
atp3296
Rp3297
sg2592
g1
((lp3298
g2583
ag1033
ag1034
ag2581
ag1036
ag3032
ag2589
ag1031
ag2592
ag3028
atp3299
Rp3300
sg402
g1
((lp3301
S'dora'
p3302
ag402
atp3303
Rp3304
sS'dennison'
p3305
g1
((lp3306
g3305
aS'denny'
p3307
atp3308
Rp3309
sg1097
g1
((lp3310
g1096
ag1097
ag1098
ag1094
atp3311
Rp3312
sS'jan'
p3313
g1
((lp3314
g3313
aS'jessie'
p3315
aS'janice'
p3316
aS'janet'
p3317
atp3318
Rp3319
sS'russell'
p3320
g1
((lp3321
S'russ'
p3322
ag225
ag3320
atp3323
Rp3324
sg1325
g1
((lp3325
S'lena'
p3326
aS'madge'
p3327
aS'magda'
p3328
ag1325
atp3329
Rp3330
sS'mittie'
p3331
g1
((lp3332
S'mitzie'
p3333
ag3331
aS'mitzi'
p3334
aS'mary'
p3335
aS'mitty'
p3336
atp3337
Rp3338
sg2806
g1
((lp3339
g2801
ag2802
ag2803
ag2804
ag2806
ag2799
ag2807
atp3340
Rp3341
sg3080
g1
((lp3342
g3080
ag3078
atp3343
Rp3344
sS'indie'
p3345
g1
((lp3346
g3345
aS'indy'
p3347
aS'india'
p3348
atp3349
Rp3350
sS'roxanna'
p3351
g1
((lp3352
S'roxie'
p3353
aS'rose'
p3354
ag3351
aS'ann'
p3355
atp3356
Rp3357
sg2785
g1
((lp3358
g2783
ag2785
ag378
ag376
atp3359
Rp3360
sS'roxanne'
p3361
g1
((lp3362
S'roxie'
p3363
aS'rose'
p3364
aS'ann'
p3365
ag3361
atp3366
Rp3367
sS'malc'
p3368
g1
((lp3369
g3368
aS'malcolm'
p3370
aS'mac'
p3371
aS'mal'
p3372
atp3373
Rp3374
sS'abijah'
p3375
g1
((lp3376
g3375
aS'ab'
p3377
aS'bige'
p3378
atp3379
Rp3380
sS'provy'
p3381
g1
((lp3382
S'providence'
p3383
ag3381
atp3384
Rp3385
sg3122
g1
((lp3386
g3121
ag3120
ag3118
ag3122
atp3387
Rp3388
sg3378
g1
((lp3389
g3375
ag3377
ag3378
atp3390
Rp3391
sS'alastair'
p3392
g1
((lp3393
S'al'
p3394
ag3392
atp3395
Rp3396
sg3348
g1
((lp3397
g3345
ag3347
ag3348
atp3398
Rp3399
sS'casey'
p3400
g1
((lp3401
g3400
aS'k.c.'
p3402
atp3403
Rp3404
sS'felty'
p3405
g1
((lp3406
S'vallie'
p3407
aS'val'
p3408
aS'valentina'
p3409
aS'valentine'
p3410
ag3405
aS'feltie'
p3411
atp3412
Rp3413
sg3154
g1
((lp3414
g3154
ag3152
ag3151
ag3148
atp3415
Rp3416
sg364
g1
((lp3417
g2058
ag2060
ag351
ag359
ag2056
ag364
ag365
ag368
atp3418
Rp3419
sS'claud'
p3420
g1
((lp3421
S'claudia'
p3422
ag3420
atp3423
Rp3424
sg784
g1
((lp3425
g784
ag785
ag786
ag787
ag782
ag788
atp3426
Rp3427
sS'malinda'
p3428
g1
((lp3429
S'lindy'
p3430
ag3428
atp3431
Rp3432
sS'roscoe'
p3433
g1
((lp3434
g3433
aS'ross'
p3435
atp3436
Rp3437
sg785
g1
((lp3438
g784
ag785
ag786
ag787
ag782
ag788
atp3439
Rp3440
sS'abednego'
p3441
g1
((lp3442
g3441
aS'bedney'
p3443
atp3444
Rp3445
sS'jude'
p3446
g1
((lp3447
g784
aS'judah'
p3448
aS'juder'
p3449
ag785
ag786
ag3446
ag782
ag788
atp3450
Rp3451
sg786
g1
((lp3452
g784
ag785
ag786
ag787
ag782
ag788
atp3453
Rp3454
sg1508
g1
((lp3455
g1504
ag1506
ag1507
ag1508
atp3456
Rp3457
sg3020
g1
((lp3458
g3021
ag2516
ag3020
aS'ron'
p3459
ag3022
atp3460
Rp3461
sS'cal'
p3462
g1
((lp3463
S'vin'
p3464
aS'vinny'
p3465
ag1471
aS'calvin'
p3466
ag3462
atp3467
Rp3468
sg2649
g1
((lp3469
g2647
ag2649
atp3470
Rp3471
sg1162
g1
((lp3472
g1157
ag1161
ag1162
atp3473
Rp3474
sS'lessie'
p3475
g1
((lp3476
S'celeste'
p3477
ag3475
aS'celia'
p3478
atp3479
Rp3480
sS'kenneth'
p3481
g1
((lp3482
S'ken'
p3483
aS'kenny'
p3484
ag3481
aS'kendrick'
p3485
atp3486
Rp3487
sS'edna'
p3488
g1
((lp3489
g3488
aS'edny'
p3490
atp3491
Rp3492
sS'reynold'
p3493
g1
((lp3494
g3493
aS'reginald'
p3495
atp3496
Rp3497
sg3490
g1
((lp3498
g3488
ag3490
atp3499
Rp3500
sg42
g1
((lp3501
S'gabriel'
p3502
ag43
ag42
ag39
ag41
ag44
atp3503
Rp3504
sg1888
g1
((lp3505
g1888
ag289
ag290
ag291
ag287
ag292
ag294
ag295
ag296
ag1886
ag299
ag300
ag301
atp3506
Rp3507
sg2808
g1
((lp3508
S'jane'
p3509
ag2808
atp3510
Rp3511
sS'dennis'
p3512
g1
((lp3513
S'denise'
p3514
ag3512
aS'denny'
p3515
atp3516
Rp3517
sS'alverta'
p3518
g1
((lp3519
S'virdie'
p3520
ag3518
aS'vert'
p3521
atp3522
Rp3523
sS'clair'
p3524
g1
((lp3525
S'clare'
p3526
aS'claire'
p3527
aS'clara'
p3528
ag1151
ag3524
atp3529
Rp3530
sS'pink'
p3531
g1
((lp3532
g3531
aS'pinckney'
p3533
atp3534
Rp3535
sS'sidney'
p3536
g1
((lp3537
S'sid'
p3538
ag3536
aS'syd'
p3539
atp3540
Rp3541
sS'dicie'
p3542
g1
((lp3543
g3542
aS'dicey'
p3544
atp3545
Rp3546
sg3202
g1
((lp3547
S'freddie'
p3548
aS'fredericka'
p3549
ag3200
aS'fred'
p3550
ag3199
ag3201
aS'ricka'
p3551
ag3197
ag3202
atp3552
Rp3553
sg665
g1
((lp3554
g663
ag661
ag664
ag665
atp3555
Rp3556
sS'dosie'
p3557
g1
((lp3558
S'dossie'
p3559
aS'eudoris'
p3560
ag3557
atp3561
Rp3562
sS'cyrenius'
p3563
g1
((lp3564
S'serene'
p3565
aS'renius'
p3566
aS'swene'
p3567
aS'cy'
p3568
ag3563
aS'cene'
p3569
atp3570
Rp3571
sS'levy'
p3572
g1
((lp3573
g3572
aS'leve'
p3574
aS'aleva'
p3575
atp3576
Rp3577
sS'samuel'
p3578
g1
((lp3579
S'sammy'
p3580
ag3578
aS'sam'
p3581
atp3582
Rp3583
sS'mat'
p3584
g1
((lp3585
S'marty'
p3586
ag3584
aS'patsy'
p3587
aS'mattie'
p3588
aS'martha'
p3589
aS'patty'
p3590
atp3591
Rp3592
sS'tryphena'
p3593
g1
((lp3594
S'phena'
p3595
ag3593
atp3596
Rp3597
sg1402
g1
((lp3598
g1399
ag1397
ag1401
ag1402
ag1403
ag1405
ag1406
ag1407
ag1408
ag1409
ag1410
ag1412
ag1413
ag1414
ag1415
ag1416
atp3599
Rp3600
sS'max'
p3601
g1
((lp3602
g3601
aS'maxine'
p3603
atp3604
Rp3605
sS'gerhardt'
p3606
g1
((lp3607
g3606
aS'gay'
p3608
atp3609
Rp3610
sg2587
g1
((lp3611
g2594
ag2679
ag2586
ag2584
ag2590
ag2585
ag2587
ag2588
ag2591
atp3612
Rp3613
sg609
g1
((lp3614
g607
ag2315
ag3370
ag2313
ag3368
ag609
ag610
ag3372
atp3615
Rp3616
sg1605
g1
((lp3617
g1399
ag1397
ag1401
ag1402
ag1403
ag1405
ag1406
ag1407
ag1408
ag1605
ag1410
ag1412
ag1603
ag1414
ag1415
ag1416
atp3618
Rp3619
sg1033
g1
((lp3620
g1033
ag1034
ag1035
ag1036
ag1037
ag1031
ag1038
ag1039
atp3621
Rp3622
sg3372
g1
((lp3623
g3368
ag3370
ag3371
ag3372
atp3624
Rp3625
sg3574
g1
((lp3626
g3572
ag3574
ag3575
atp3627
Rp3628
sg1213
g1
((lp3629
g1209
ag3072
ag1212
ag1213
ag3073
ag3074
ag3075
ag1217
atp3630
Rp3631
sg111
g1
((lp3632
g117
ag111
ag3126
ag3127
ag3129
ag124
atp3633
Rp3634
sg2958
g1
((lp3635
S'dolph'
p3636
ag2958
aS'rudy'
p3637
aS'olph'
p3638
aS'rolf'
p3639
atp3640
Rp3641
sS'irwin'
p3642
g1
((lp3643
S'erwin'
p3644
ag3642
atp3645
Rp3646
sS'hepsibah'
p3647
g1
((lp3648
g3647
aS'hipsie'
p3649
atp3650
Rp3651
sS'si'
p3652
g1
((lp3653
g1209
ag1208
ag3210
ag1210
aS'silas'
p3654
ag1212
ag1213
ag1206
ag1214
ag3652
aS'simon'
p3655
ag3213
ag1216
ag1217
atp3656
Rp3657
sS'billiewilhelm'
p3658
g1
((lp3659
S'william'
p3660
ag3658
aS'wilma'
p3661
atp3662
Rp3663
sS'marguerite'
p3664
g1
((lp3665
S'peggy'
p3666
ag3664
atp3667
Rp3668
sg2418
g1
((lp3669
g2486
ag2418
ag2416
ag2419
ag2420
ag2421
ag2423
atp3670
Rp3671
sS'peregrine'
p3672
g1
((lp3673
S'perry'
p3674
ag3672
atp3675
Rp3676
sg1569
g1
((lp3677
S'hannah'
p3678
aS'sukey'
p3679
aS'sue'
p3680
ag1569
aS'susie'
p3681
atp3682
Rp3683
sS'serilla'
p3684
g1
((lp3685
S'rilla'
p3686
ag3684
atp3687
Rp3688
sS'tavia'
p3689
g1
((lp3690
g3689
aS'octavia'
p3691
aS'tave'
p3692
atp3693
Rp3694
sg3194
g1
((lp3695
S'nole'
p3696
ag3192
ag3194
aS'nikki'
p3697
aS'nicole'
p3698
atp3699
Rp3700
sg2006
g1
((lp3701
g2004
ag2006
atp3702
Rp3703
sg852
g1
((lp3704
g851
ag1348
ag849
ag852
atp3705
Rp3706
sS'felicia'
p3707
g1
((lp3708
S'fel'
p3709
aS'felix'
p3710
ag3707
aS'feli'
p3711
atp3712
Rp3713
sS'wallace'
p3714
g1
((lp3715
S'wally'
p3716
ag3714
atp3717
Rp3718
sS'jim'
p3719
g1
((lp3720
S'jimmie'
p3721
aS'jamie'
p3722
aS'james'
p3723
ag3719
aS'jimmy'
p3724
aS'jem'
p3725
atp3726
Rp3727
sg2684
g1
((lp3728
g2684
ag2682
atp3729
Rp3730
sg906
g1
((lp3731
g904
ag906
ag902
atp3732
Rp3733
sg2502
g1
((lp3734
S'vic'
p3735
aS'vicki'
p3736
ag2497
ag2499
aS'vicky'
p3737
ag2502
atp3738
Rp3739
sg2756
g1
((lp3740
g2749
ag2751
ag2752
ag2753
ag2754
ag2755
ag2756
atp3741
Rp3742
sS'nettie'
p3743
g1
((lp3744
g2333
ag2335
aS'natalie'
p3745
aS'monet'
p3746
ag2464
aS'jessie'
p3747
ag2336
ag1124
aS'jannett'
p3748
aS'lunetta'
p3749
ag1126
ag2338
ag3261
aS'annette'
p3750
aS'natty'
p3751
aS'jean'
p3752
ag2458
ag2340
aS'anna'
p3753
ag3743
atp3754
Rp3755
sS'winifred'
p3756
g1
((lp3757
g3756
aS'freddie'
p3758
aS'winnet'
p3759
aS'winnie'
p3760
atp3761
Rp3762
sg3567
g1
((lp3763
g3565
ag3566
ag3567
ag3568
ag3563
ag3569
atp3764
Rp3765
sS'edmond'
p3766
g1
((lp3767
S'ed'
p3768
aS'eddie'
p3769
aS'eddy'
p3770
ag3766
atp3771
Rp3772
sg2540
g1
((lp3773
g2540
ag2538
atp3774
Rp3775
sS'nabby'
p3776
g1
((lp3777
S'abby'
p3778
ag3776
aS'abigail'
p3779
aS'gail'
p3780
atp3781
Rp3782
sg3723
g1
((lp3783
g3721
ag3722
ag3723
ag3719
ag3724
ag3725
atp3784
Rp3785
sS'brody'
p3786
g1
((lp3787
g3786
ag1721
aS'brady'
p3788
ag1725
ag1727
atp3789
Rp3790
sg1065
g1
((lp3791
g1062
ag1074
ag1064
ag1065
ag1066
atp3792
Rp3793
sg2774
g1
((lp3794
g2772
ag2775
ag924
ag2773
ag2774
ag2770
ag922
atp3795
Rp3796
sg430
g1
((lp3797
S'gerry'
p3798
ag428
ag430
aS'jerry'
p3799
ag426
atp3800
Rp3801
sS'em'
p3802
g1
((lp3803
g3802
aS'emma'
p3804
aS'milly'
p3805
aS'emeline'
p3806
aS'emmy'
p3807
aS'emily'
p3808
atp3809
Rp3810
sS'ed'
p3811
g1
((lp3812
g65
ag3811
ag244
ag247
aS'eddy'
p3813
ag1974
ag3766
aS'eddie'
p3814
ag63
ag250
aS'eduardo'
p3815
ag251
ag252
atp3816
Rp3817
sS'quillie'
p3818
g1
((lp3819
S'quil'
p3820
ag3818
aS'aquilla'
p3821
atp3822
Rp3823
sS'steven'
p3824
g1
((lp3825
S'steve'
p3826
aS'stephen'
p3827
aS'steph'
p3828
ag3824
atp3829
Rp3830
sg2773
g1
((lp3831
g2772
ag2775
ag924
ag2773
ag2774
ag2770
ag922
atp3832
Rp3833
sg2909
g1
((lp3834
g2367
ag3169
ag2909
ag2907
ag2910
atp3835
Rp3836
sg3520
g1
((lp3837
g3520
ag3518
ag3521
atp3838
Rp3839
sS'ev'
p3840
g1
((lp3841
g3840
ag2174
ag2176
aS'evan'
p3842
aS'evangeline'
p3843
ag2172
aS'vangie'
p3844
atp3845
Rp3846
sS'es'
p3847
g1
((lp3848
S'essy'
p3849
ag3847
atp3850
Rp3851
sg848
g1
((lp3852
g848
ag845
atp3853
Rp3854
sS'sha'
p3855
g1
((lp3856
g3855
aS'shay'
p3857
aS'shaina'
p3858
aS'sharon'
p3859
atp3860
Rp3861
sg1426
g1
((lp3862
g1426
ag1424
ag1427
ag1428
ag1429
atp3863
Rp3864
sg3843
g1
((lp3865
g3842
ag3840
ag3843
ag3844
atp3866
Rp3867
sS'kent'
p3868
g1
((lp3869
S'ken'
p3870
aS'kenny'
p3871
ag3868
aS'kendrick'
p3872
atp3873
Rp3874
sS'dutch'
p3875
g1
((lp3876
S'harman'
p3877
aS'herman'
p3878
ag3875
atp3879
Rp3880
sg1776
g1
((lp3881
S'clarissa'
p3882
aS'sis'
p3883
ag1776
ag2069
ag1773
aS'franniey'
p3884
aS'fran'
p3885
aS'clara'
p3886
aS'francie'
p3887
aS'frances'
p3888
aS'frannie'
p3889
ag1777
ag2082
aS'fanny'
p3890
ag2071
aS'frankie'
p3891
atp3892
Rp3893
sS'ples'
p3894
g1
((lp3895
S'pleasant'
p3896
ag3894
atp3897
Rp3898
sg3449
g1
((lp3899
g3449
ag3446
ag3448
atp3900
Rp3901
sS'hiram'
p3902
g1
((lp3903
S'hy'
p3904
ag3902
atp3905
Rp3906
sS'mima'
p3907
g1
((lp3908
g3907
aS'jemima'
p3909
atp3910
Rp3911
sg93
g1
((lp3912
g91
ag93
atp3913
Rp3914
sS'carl'
p3915
g1
((lp3916
g2437
ag2439
ag2440
aS'carlton'
p3917
ag3915
ag2442
atp3918
Rp3919
sS'carm'
p3920
g1
((lp3921
S'carmon'
p3922
aS'charm'
p3923
aS'cammie'
p3924
ag3920
atp3925
Rp3926
sg2040
g1
((lp3927
g2040
ag2034
ag2037
ag2038
atp3928
Rp3929
sg619
g1
((lp3930
g615
ag2692
ag616
ag2694
ag613
ag617
ag618
ag619
atp3931
Rp3932
sS'isidore'
p3933
g1
((lp3934
S'izzy'
p3935
ag3933
atp3936
Rp3937
sS'democrates'
p3938
g1
((lp3939
S'mock'
p3940
ag3938
atp3941
Rp3942
sS'estella'
p3943
g1
((lp3944
S'essy'
p3945
ag3943
aS'stella'
p3946
atp3947
Rp3948
sS'melly'
p3949
g1
((lp3950
g3949
aS'permelia'
p3951
aS'mellie'
p3952
aS'milly'
p3953
atp3954
Rp3955
sS'estelle'
p3956
g1
((lp3957
S'essy'
p3958
aS'stella'
p3959
ag3956
atp3960
Rp3961
sS'archibald'
p3962
g1
((lp3963
S'archie'
p3964
ag3962
atp3965
Rp3966
sS'essie'
p3967
g1
((lp3968
S'esther'
p3969
ag3967
aS'hester'
p3970
atp3971
Rp3972
sg755
g1
((lp3973
g754
ag752
ag755
atp3974
Rp3975
sS'arthusa'
p3976
g1
((lp3977
g3976
aS'thursa'
p3978
atp3979
Rp3980
sS'loretta'
p3981
g1
((lp3982
g3981
aS'lorrie'
p3983
aS'etta'
p3984
aS'retta'
p3985
atp3986
Rp3987
sg590
g1
((lp3988
g590
ag588
ag591
ag592
atp3989
Rp3990
sg2753
g1
((lp3991
g2749
ag2751
ag2752
ag2753
ag2754
ag2755
ag2756
atp3992
Rp3993
sg1453
g1
((lp3994
g1450
ag1452
ag1453
atp3995
Rp3996
sg520
g1
((lp3997
g518
ag520
atp3998
Rp3999
sS'george'
p4000
g1
((lp4001
S'georgia'
p4002
aS'jorge'
p4003
ag4000
aS'georgiana'
p4004
atp4005
Rp4006
sS'gertrude'
p4007
g1
((lp4008
g4007
aS'gert'
p4009
aS'gertie'
p4010
aS'trudy'
p4011
atp4012
Rp4013
sg3244
g1
((lp4014
g3244
ag3245
ag3242
ag3246
atp4015
Rp4016
sg1344
g1
((lp4017
g1342
ag1344
atp4018
Rp4019
sg2000
g1
((lp4020
g1999
ag1489
ag2000
ag2001
ag1495
ag1997
atp4021
Rp4022
sg802
g1
((lp4023
g799
ag800
ag801
ag797
ag802
atp4024
Rp4025
sg1172
g1
((lp4026
g1183
ag1167
ag1172
ag1165
atp4027
Rp4028
sg1494
g1
((lp4029
g1488
ag1490
ag1491
ag1486
ag1493
ag1494
atp4030
Rp4031
sS'almira'
p4032
g1
((lp4033
g4032
aS'myra'
p4034
atp4035
Rp4036
sg3058
g1
((lp4037
S'rose'
p4038
ag3057
ag3055
aS'roz'
p4039
ag3058
atp4040
Rp4041
sg2069
g1
((lp4042
g2082
ag2070
ag2069
ag2071
atp4043
Rp4044
sg2827
g1
((lp4045
S'bert'
p4046
ag2823
ag2827
ag2819
atp4047
Rp4048
sS'alan'
p4049
g1
((lp4050
S'al'
p4051
ag4049
atp4052
Rp4053
sS'thad'
p4054
g1
((lp4055
S'thaddeus'
p4056
ag4054
atp4057
Rp4058
sS'shirley'
p4059
g1
((lp4060
g4059
aS'shirl'
p4061
aS'lee'
p4062
aS'sherry'
p4063
atp4064
Rp4065
sS'than'
p4066
g1
((lp4067
S'nathan'
p4068
ag4066
aS'nathaniel'
p4069
aS'nat'
p4070
aS'natty'
p4071
aS'nate'
p4072
atp4073
Rp4074
sg1345
g1
((lp4075
S'john'
p4076
ag1345
ag4071
ag4066
ag1351
aS'nat'
p4077
aS'jonathan'
p4078
ag4069
aS'nate'
p4079
atp4080
Rp4081
sg2830
g1
((lp4082
g2830
aS'bert'
p4083
atp4084
Rp4085
sg358
g1
((lp4086
g356
ag358
ag361
ag362
ag1933
ag366
atp4087
Rp4088
sS'monteleon'
p4089
g1
((lp4090
g4089
aS'monte'
p4091
atp4092
Rp4093
sS'sophie'
p4094
g1
((lp4095
g4094
aS'sophia'
p4096
atp4097
Rp4098
sg4096
g1
((lp4099
S'sophronia'
p4100
ag4094
aS'frona'
p4101
ag4096
aS'fronia'
p4102
atp4103
Rp4104
sg108
g1
((lp4105
g108
ag109
ag1292
ag259
ag113
ag255
ag115
ag116
ag106
aS'cordy'
p4106
ag1289
aS'cordelia'
p4107
ag121
atp4108
Rp4109
sg1044
g1
((lp4110
g1042
ag1044
ag1045
atp4111
Rp4112
sg2803
g1
((lp4113
g2801
ag2802
ag2803
ag2804
ag2806
ag2799
ag2807
atp4114
Rp4115
sg3145
g1
((lp4116
g3143
ag3145
ag1838
ag1839
ag1840
ag1841
ag1842
ag1835
atp4117
Rp4118
sg409
g1
((lp4119
g409
ag4039
ag1768
ag307
ag305
ag3361
ag2118
ag408
ag3285
ag410
ag3351
aS'tina'
p4120
aS'anne'
p4121
ag3058
aS'anna'
p4122
ag3055
ag412
ag3056
ag2121
ag3353
ag405
ag2122
ag2123
ag2124
aS'antonia'
p4123
ag2119
ag407
ag4038
ag308
aS'dee'
p4124
atp4125
Rp4126
sS'bennie'
p4127
g1
((lp4128
S'benjamin'
p4129
aS'benjy'
p4130
ag4127
aS'ben'
p4131
aS'benedict'
p4132
aS'jamie'
p4133
atp4134
Rp4135
sS'nicey'
p4136
g1
((lp4137
S'vernisee'
p4138
ag4136
atp4139
Rp4140
sg281
g1
((lp4141
g281
ag282
ag283
ag279
ag284
atp4142
Rp4143
sg3233
g1
((lp4144
g117
ag111
ag2238
aS'addy'
p4145
ag3233
ag120
ag127
ag124
ag123
atp4146
Rp4147
sg907
g1
((lp4148
g907
ag2547
ag905
ag3334
ag2546
ag3333
ag3331
ag3335
ag908
atp4149
Rp4150
sS'allen'
p4151
g1
((lp4152
g4151
aS'al'
p4153
atp4154
Rp4155
sg3185
g1
((lp4156
g3184
ag3182
ag3185
atp4157
Rp4158
sg2926
g1
((lp4159
g2929
aS'cassie'
p4160
ag2925
ag2926
atp4161
Rp4162
sg3749
g1
((lp4163
g3749
aS'nettie'
p4164
atp4165
Rp4166
sg1442
g1
((lp4167
g1440
ag1441
ag1438
ag1442
ag1443
atp4168
Rp4169
sS'jefferson'
p4170
g1
((lp4171
S'sonny'
p4172
ag4170
aS'jeff'
p4173
atp4174
Rp4175
sS'rosina'
p4176
g1
((lp4177
g4176
aS'sina'
p4178
atp4179
Rp4180
sg1108
g1
((lp4181
S'mandy'
p4182
ag1108
atp4183
Rp4184
sg36
g1
((lp4185
g380
ag34
ag35
ag36
atp4186
Rp4187
sS'roxie'
p4188
g1
((lp4189
g4188
ag3354
ag3355
aS'rox'
p4190
aS'roxane'
p4191
ag3351
ag3361
atp4192
Rp4193
sg1695
g1
((lp4194
g1694
aS'deedee'
p4195
ag1695
atp4196
Rp4197
sg2967
g1
((lp4198
g2962
ag3227
ag2964
ag2965
ag2966
ag2967
ag2968
ag3228
atp4199
Rp4200
sg766
g1
((lp4201
g300
ag764
ag291
ag287
ag292
ag768
ag295
ag2626
ag2623
ag297
ag298
ag299
ag766
ag301
ag769
atp4202
Rp4203
sS'michelle'
p4204
g1
((lp4205
S'mickey'
p4206
ag4204
atp4207
Rp4208
sg1141
g1
((lp4209
g1139
ag1141
ag1142
ag1143
ag1144
ag1145
atp4210
Rp4211
sS'phil'
p4212
g1
((lp4213
g2941
aS'phillip'
p4214
aS'philip'
p4215
ag4212
ag2939
atp4216
Rp4217
sg2483
g1
((lp4218
g2480
ag2481
ag2482
ag2478
ag2483
atp4219
Rp4220
sS'link'
p4221
g1
((lp4222
S'lincoln'
p4223
ag4221
atp4224
Rp4225
sS'abraham'
p4226
g1
((lp4227
g4226
aS'ab'
p4228
aS'abe'
p4229
aS'abram'
p4230
atp4231
Rp4232
sS'boetius'
p4233
g1
((lp4234
g4233
aS'bo'
p4235
atp4236
Rp4237
sg3603
g1
((lp4238
g3601
ag3603
atp4239
Rp4240
sg3560
g1
((lp4241
g3559
ag3560
ag3557
atp4242
Rp4243
sS'percy'
p4244
g1
((lp4245
g4244
aS'percival'
p4246
atp4247
Rp4248
sg3288
g1
((lp4249
g3288
ag3283
atp4250
Rp4251
sg1458
g1
((lp4252
g1456
ag1458
atp4253
Rp4254
sS'posthuma'
p4255
g1
((lp4256
g4255
aS'humey'
p4257
atp4258
Rp4259
sg55
g1
((lp4260
g51
ag53
ag54
ag55
atp4261
Rp4262
sg904
g1
((lp4263
g902
ag904
ag905
ag906
ag907
ag908
atp4264
Rp4265
sg1728
g1
((lp4266
g1730
ag1735
ag1728
ag985
ag981
aS'zadock'
p4267
ag986
aS'melchizedek'
p4268
aS'rick'
p4269
ag976
ag1732
ag989
atp4270
Rp4271
sg1403
g1
((lp4272
g1399
ag1397
ag3336
ag1401
ag1402
ag1403
ag3331
ag1405
ag2038
ag1406
ag1407
ag1408
ag1409
ag2034
ag1410
ag2040
ag1412
ag1413
ag1414
ag1415
ag1416
atp4273
Rp4274
sS'otis'
p4275
g1
((lp4276
g4275
aS'ode'
p4277
aS'ote'
p4278
atp4279
Rp4280
sg34
g1
((lp4281
g380
ag34
ag35
ag36
atp4282
Rp4283
sg2988
g1
((lp4284
g2988
ag2986
atp4285
Rp4286
sg1591
g1
((lp4287
g1261
ag1265
ag1266
aS'madie'
p4288
ag1586
ag1589
ag1591
ag1592
atp4289
Rp4290
sS'dicy'
p4291
g1
((lp4292
g4291
aS'laodicia'
p4293
aS'cenia'
p4294
atp4295
Rp4296
sg2927
g1
((lp4297
g2931
ag2923
aS'charlotte'
p4298
ag2932
aS'chuck'
p4299
ag2928
aS'chick'
p4300
ag2930
ag2927
ag2921
atp4301
Rp4302
sg1382
g1
((lp4303
g891
ag193
ag550
ag194
ag1382
ag1383
ag197
aS'nora'
p4304
ag198
ag1387
aS'helen'
p4305
ag201
atp4306
Rp4307
sS'nels'
p4308
g1
((lp4309
g4308
aS'nelson'
p4310
atp4311
Rp4312
sS'gee'
p4313
g1
((lp4314
S'jehu'
p4315
aS'hugh'
p4316
ag4313
atp4317
Rp4318
sS'yvonne'
p4319
g1
((lp4320
S'vonna'
p4321
ag4319
atp4322
Rp4323
sg3269
g1
((lp4324
g3269
ag3266
atp4325
Rp4326
sg2932
g1
((lp4327
g2931
ag2923
ag2932
ag2928
ag2930
ag2927
ag2921
atp4328
Rp4329
sS'stacia'
p4330
g1
((lp4331
S'eustacia'
p4332
aS'stacy'
p4333
ag4330
atp4334
Rp4335
sg1590
g1
((lp4336
g3586
ag1588
ag3584
ag2028
ag2027
ag3042
ag2029
ag1590
ag3587
ag2031
ag3589
ag2904
ag3590
atp4337
Rp4338
sg2590
g1
((lp4339
S'roge'
p4340
aS'bobby'
p4341
aS'rod'
p4342
aS'hodge'
p4343
ag2590
aS'robby'
p4344
aS'rupert'
p4345
aS'robin'
p4346
atp4347
Rp4348
sg308
g1
((lp4349
g307
ag308
ag309
ag4123
ag305
atp4350
Rp4351
sg1113
g1
((lp4352
g1106
ag1111
ag1113
atp4353
Rp4354
sS'caswell'
p4355
g1
((lp4356
g4355
aS'cass'
p4357
atp4358
Rp4359
sg1566
g1
((lp4360
g3107
ag1566
ag3109
ag1568
ag1569
ag1570
ag3108
atp4361
Rp4362
sg882
g1
((lp4363
g874
ag878
ag879
ag2284
ag2285
ag882
ag884
ag885
ag886
atp4364
Rp4365
sg863
g1
((lp4366
g862
ag863
ag864
ag860
atp4367
Rp4368
sg634
g1
((lp4369
g633
ag634
ag802
ag635
ag2129
ag636
ag800
ag801
ag797
atp4370
Rp4371
sg2016
g1
((lp4372
g2015
ag2013
ag2016
ag2017
atp4373
Rp4374
sg698
g1
((lp4375
g699
ag698
aS'iggy'
p4376
aS'nace'
p4377
atp4378
Rp4379
sg4069
g1
((lp4380
g4068
ag4066
ag4069
ag4070
ag4071
ag4072
atp4381
Rp4382
sS'alzada'
p4383
g1
((lp4384
S'zada'
p4385
ag4383
atp4386
Rp4387
sg3047
g1
((lp4388
g3045
ag3047
ag3048
atp4389
Rp4390
sg3164
g1
((lp4391
g3162
ag15
ag3164
ag12
ag3166
atp4392
Rp4393
sS'marvin'
p4394
g1
((lp4395
g4394
aS'marv'
p4396
atp4397
Rp4398
sg239
g1
((lp4399
g241
ag238
ag236
ag239
ag240
ag953
atp4400
Rp4401
sS'jr'
p4402
g1
((lp4403
S'june'
p4404
aS'junie'
p4405
aS'junior'
p4406
ag4402
atp4407
Rp4408
sg1303
g1
((lp4409
g1302
ag1303
ag1300
atp4410
Rp4411
sg1408
g1
((lp4412
g1399
ag1397
ag1401
ag1402
ag1403
ag1405
ag1406
ag1407
ag1408
ag1409
ag1410
ag1412
ag1413
ag1414
ag1415
ag1416
atp4413
Rp4414
sg3533
g1
((lp4415
g3531
ag3533
atp4416
Rp4417
sg1731
g1
((lp4418
g1731
ag1723
aS'rick'
p4419
aS'ricky'
p4420
atp4421
Rp4422
sS'mona'
p4423
g1
((lp4424
S'ramona'
p4425
ag4423
atp4426
Rp4427
sg1050
g1
((lp4428
g1048
ag1050
ag1051
atp4429
Rp4430
sg837
g1
((lp4431
g3244
ag837
ag834
ag836
ag3242
ag3246
atp4432
Rp4433
sg139
g1
((lp4434
g139
ag137
atp4435
Rp4436
sS'duty'
p4437
g1
((lp4438
g4437
aS'deuteronomy'
p4439
atp4440
Rp4441
sS'lecurgus'
p4442
g1
((lp4443
S'curg'
p4444
ag4442
atp4445
Rp4446
sS'zaddi'
p4447
g1
((lp4448
S'arzada'
p4449
ag4447
atp4450
Rp4451
sS'prue'
p4452
g1
((lp4453
g4452
aS'prudy'
p4454
aS'prudence'
p4455
atp4456
Rp4457
sg2738
g1
((lp4458
g2738
ag2739
ag2736
ag2740
ag2741
atp4459
Rp4460
sg3698
g1
((lp4461
g3696
aS'cole'
p4462
ag3697
ag3698
atp4463
Rp4464
sg3150
g1
((lp4465
g3150
aS'ollie'
p4466
atp4467
Rp4468
sS'lidia'
p4469
g1
((lp4470
S'lyddy'
p4471
ag4469
atp4472
Rp4473
sg65
g1
((lp4474
S'theo'
p4475
ag65
aS'theodore'
p4476
ag66
ag67
ag68
ag69
ag70
ag63
atp4477
Rp4478
sg4439
g1
((lp4479
g4437
ag4439
atp4480
Rp4481
sS'mark'
p4482
g1
((lp4483
S'marcus'
p4484
ag4482
atp4485
Rp4486
sg4106
g1
((lp4487
S'delia'
p4488
ag4107
ag4106
aS'corey'
p4489
aS'coco'
p4490
ag2715
aS'ree'
p4491
atp4492
Rp4493
sg4396
g1
((lp4494
g4394
ag4396
atp4495
Rp4496
sg1583
g1
((lp4497
g1412
ag3336
aS'marcie'
p4498
ag1407
ag3331
ag1403
aS'marsha'
p4499
ag1582
ag1583
ag1401
ag1402
ag1405
ag1578
ag1408
ag1409
ag1410
ag1413
aS'marilyn'
p4500
ag1608
ag1610
ag1397
ag1580
ag1406
ag1581
ag1414
atp4501
Rp4502
sg513
g1
((lp4503
g512
ag510
ag513
ag514
ag515
atp4504
Rp4505
sg1313
g1
((lp4506
g1313
ag1311
atp4507
Rp4508
sg421
g1
((lp4509
g420
ag421
ag376
ag379
ag417
ag419
atp4510
Rp4511
sg2613
g1
((lp4512
g2609
ag2607
ag2610
ag2611
ag3824
ag2613
ag2614
atp4513
Rp4514
sg419
g1
((lp4515
g417
ag419
ag420
ag421
atp4516
Rp4517
sS'elvie'
p4518
g1
((lp4519
g4518
aS'elvira'
p4520
atp4521
Rp4522
sg1401
g1
((lp4523
g1399
ag1397
aS'paulina'
p4524
ag1401
ag1402
ag1403
aS'pauline'
p4525
ag1405
ag1406
ag1407
ag1408
ag1409
aS'lina'
p4526
ag1410
ag1412
aS'paul'
p4527
ag1413
ag1414
ag1415
aS'paula'
p4528
ag1416
atp4529
Rp4530
sg876
g1
((lp4531
S'tibbie'
p4532
aS'arabella'
p4533
ag876
aS'nib'
p4534
aS'belle'
p4535
aS'bella'
p4536
aS'nibby'
p4537
aS'ib'
p4538
aS'issy'
p4539
atp4540
Rp4541
sg1286
g1
((lp4542
g1284
ag1286
atp4543
Rp4544
sg881
g1
((lp4545
S'tibbie'
p4546
ag881
aS'nib'
p4547
aS'belle'
p4548
aS'bella'
p4549
aS'nibby'
p4550
aS'ib'
p4551
aS'issy'
p4552
atp4553
Rp4554
sg2751
g1
((lp4555
g2749
ag2751
ag2752
ag2753
ag2754
ag2755
ag2756
atp4556
Rp4557
sS'valeri'
p4558
g1
((lp4559
g4558
aS'val'
p4560
atp4561
Rp4562
sS'arnold'
p4563
g1
((lp4564
S'arnie'
p4565
ag4563
atp4566
Rp4567
sg4138
g1
((lp4568
g4138
ag4136
atp4569
Rp4570
sg180
g1
((lp4571
g178
ag180
atp4572
Rp4573
sg4357
g1
((lp4574
g4355
ag4357
atp4575
Rp4576
sg325
g1
((lp4577
g314
ag312
ag332
ag331
ag324
ag327
ag334
ag317
ag315
aS'marjorie'
p4578
ag333
ag328
ag318
ag325
ag335
ag321
ag322
atp4579
Rp4580
sS'abiel'
p4581
g1
((lp4582
g4581
aS'ab'
p4583
atp4584
Rp4585
sg1208
g1
((lp4586
g1208
ag1210
ag1206
ag1214
ag1215
ag1216
atp4587
Rp4588
sg1571
g1
((lp4589
g1564
aS'sue'
p4590
ag1571
aS'susie'
p4591
atp4592
Rp4593
sS'iva'
p4594
g1
((lp4595
g4594
aS'ivy'
p4596
atp4597
Rp4598
sS'candace'
p4599
g1
((lp4600
g4599
aS'candy'
p4601
aS'dacey'
p4602
atp4603
Rp4604
sS'bias'
p4605
g1
((lp4606
g4605
aS'toby'
p4607
aS'tobias'
p4608
atp4609
Rp4610
sg4596
g1
((lp4611
g4594
ag4596
atp4612
Rp4613
sS'pat'
p4614
g1
((lp4615
S'tricia'
p4616
ag4614
ag1994
aS'patrick'
p4617
aS'patricia'
p4618
aS'patsy'
p4619
ag504
ag1987
ag1993
ag507
atp4620
Rp4621
sg252
g1
((lp4622
S'edwina'
p4623
aS'ed'
p4624
ag252
aS'eddie'
p4625
aS'eddy'
p4626
ag251
aS'ned'
p4627
atp4628
Rp4629
sS'lucias'
p4630
g1
((lp4631
S'luke'
p4632
ag4630
atp4633
Rp4634
sS'hermie'
p4635
g1
((lp4636
S'hermione'
p4637
ag4635
atp4638
Rp4639
sg4449
g1
((lp4640
g4449
ag4447
atp4641
Rp4642
sS'pam'
p4643
g1
((lp4644
S'pamela'
p4645
ag4643
atp4646
Rp4647
sS'jeffrey'
p4648
g1
((lp4649
S'geoffrey'
p4650
aS'geoff'
p4651
ag4648
aS'jeff'
p4652
atp4653
Rp4654
sS'josetta'
p4655
g1
((lp4656
g4655
aS'jettie'
p4657
atp4658
Rp4659
sg1696
g1
((lp4660
g1692
ag1696
atp4661
Rp4662
sg1463
g1
((lp4663
g1461
ag1463
atp4664
Rp4665
sg3201
g1
((lp4666
g3199
ag3197
ag3200
ag3201
ag3202
atp4667
Rp4668
sg1671
g1
((lp4669
g2013
ag2015
ag1670
ag2016
ag1668
ag1672
ag1671
atp4670
Rp4671
sg3746
g1
((lp4672
g3746
aS'nettie'
p4673
atp4674
Rp4675
sg3891
g1
((lp4676
g3883
aS'cissy'
p4677
ag3891
ag3884
ag3885
ag3887
ag3888
ag3889
aS'frank'
p4678
aS'francis'
p4679
ag3890
atp4680
Rp4681
sg2780
g1
((lp4682
g2780
ag2778
atp4683
Rp4684
sg4607
g1
((lp4685
g4605
ag4607
ag4608
atp4686
Rp4687
sg4191
g1
((lp4688
g4190
ag4191
ag4188
atp4689
Rp4690
sg2252
g1
((lp4691
g2250
ag2252
ag2253
atp4692
Rp4693
sg3443
g1
((lp4694
g3441
ag3443
atp4695
Rp4696
sg264
g1
((lp4697
S'shelly'
p4698
ag264
atp4699
Rp4700
sS'rose'
p4701
g1
((lp4702
g2164
aS'rosie'
p4703
ag3058
ag813
ag3056
ag4701
ag3057
ag3351
ag2166
aS'rosa'
p4704
ag3353
ag2297
ag3361
ag2169
ag815
ag164
atp4705
Rp4706
sg4704
g1
((lp4707
g2164
ag813
ag4701
ag2166
ag4704
ag2297
ag2169
ag815
ag164
atp4708
Rp4709
sg2428
g1
((lp4710
g2428
ag2426
ag2429
atp4711
Rp4712
sg3435
g1
((lp4713
g3433
ag3435
atp4714
Rp4715
sg146
g1
((lp4716
g142
ag144
ag146
ag147
atp4717
Rp4718
sg4484
g1
((lp4719
g4484
ag4482
atp4720
Rp4721
sg2481
g1
((lp4722
g2480
ag2481
ag2482
ag2478
ag2483
atp4723
Rp4724
sS'tensey'
p4725
g1
((lp4726
S'hortense'
p4727
aS'harty'
p4728
ag4725
atp4729
Rp4730
sg1194
g1
((lp4731
g1193
ag1194
ag1195
ag1477
ag1478
ag1197
atp4732
Rp4733
sg359
g1
((lp4734
g359
ag364
ag365
ag368
ag351
atp4735
Rp4736
sg1176
g1
((lp4737
g1176
ag1174
aS'ferdie'
p4738
aS'fred'
p4739
atp4740
Rp4741
sS'nappy'
p4742
g1
((lp4743
S'leon'
p4744
aS'nap'
p4745
ag4742
aS'napoleon'
p4746
atp4747
Rp4748
sS'tillie'
p4749
g1
((lp4750
g4749
aS'tilford'
p4751
aS'mathilda'
p4752
aS'patty'
p4753
atp4754
Rp4755
sg385
g1
((lp4756
S'beck'
p4757
ag760
ag761
ag385
aS'becky'
p4758
atp4759
Rp4760
sS'walt'
p4761
g1
((lp4762
S'wally'
p4763
ag4761
aS'walter'
p4764
atp4765
Rp4766
sg1800
g1
((lp4767
g1800
ag1801
aS'kris'
p4768
aS'kristy'
p4769
ag1797
aS'tina'
p4770
aS'christy'
p4771
ag1799
aS'crissy'
p4772
atp4773
Rp4774
sg1801
g1
((lp4775
g1800
ag1801
aS'kris'
p4776
aS'kristy'
p4777
ag2116
ag1797
aS'tina'
p4778
ag1799
aS'crissy'
p4779
atp4780
Rp4781
sg4617
g1
((lp4782
g4614
ag4617
ag4618
ag1992
ag1987
ag1993
ag1994
atp4783
Rp4784
sg2805
g1
((lp4785
S'jane'
p4786
ag2805
atp4787
Rp4788
sg1850
g1
((lp4789
g1849
ag1847
ag1845
ag1850
ag1848
atp4790
Rp4791
sg2087
g1
((lp4792
g2085
ag2087
ag2088
atp4793
Rp4794
sS'beverly'
p4795
g1
((lp4796
g4795
aS'bev'
p4797
atp4798
Rp4799
sg3844
g1
((lp4800
g3842
ag3840
ag3843
ag3844
atp4801
Rp4802
sg2440
g1
((lp4803
g4298
ag2437
ag2439
ag2440
ag2441
ag2442
aS'caroline'
p4804
atp4805
Rp4806
sS'britt'
p4807
g1
((lp4808
g4807
aS'brittany'
p4809
atp4810
Rp4811
sg3814
g1
((lp4812
g65
ag3811
ag244
ag247
ag3813
ag1974
ag3766
ag3814
ag63
ag250
ag3815
ag251
ag252
atp4813
Rp4814
sg1227
g1
((lp4815
S'hannah'
p4816
ag1224
ag3115
ag1225
ag3113
ag1227
ag1220
atp4817
Rp4818
sg3692
g1
((lp4819
g3689
ag3691
ag3692
atp4820
Rp4821
sS'exie'
p4822
g1
((lp4823
g4822
aS'experience'
p4824
atp4825
Rp4826
sS'willis'
p4827
g1
((lp4828
S'willy'
p4829
ag4827
aS'bill'
p4830
atp4831
Rp4832
sg1440
g1
((lp4833
g1440
ag1441
ag1438
ag1442
ag1443
atp4834
Rp4835
sg501
g1
((lp4836
g497
ag499
ag500
ag501
atp4837
Rp4838
sS'ellie'
p4839
g1
((lp4840
g2260
ag1380
ag533
ag536
ag1381
ag2376
ag529
ag2264
ag2411
ag542
ag4839
aS'danielle'
p4841
ag545
aS'dani'
p4842
ag546
ag544
ag894
atp4843
Rp4844
sg2453
g1
((lp4845
g2453
ag2451
atp4846
Rp4847
sg1180
g1
((lp4848
S'willy'
p4849
aS'wilda'
p4850
aS'wilson'
p4851
aS'wilbur'
p4852
aS'bell'
p4853
ag2886
ag1169
ag1181
aS'minnie'
p4854
aS'fred'
p4855
ag1175
ag1184
ag130
ag132
aS'wilhelmina'
p4856
ag2887
ag1180
aS'bela'
p4857
atp4858
Rp4859
sS'vivian'
p4860
g1
((lp4861
S'vi'
p4862
aS'viv'
p4863
ag4860
atp4864
Rp4865
sg3887
g1
((lp4866
g3883
ag4677
ag3891
ag3884
ag3885
ag3887
aS'francine'
p4867
ag3888
ag3889
ag3890
atp4868
Rp4869
sg4679
g1
((lp4870
S'fran'
p4871
ag4679
aS'frankie'
p4872
ag4678
atp4873
Rp4874
sg1066
g1
((lp4875
S'eurydice'
p4876
ag1064
ag1062
ag1065
ag3542
ag1074
aS'eudicy'
p4877
ag1066
atp4878
Rp4879
sg1175
g1
((lp4880
S'willy'
p4881
aS'will'
p4882
ag3658
ag4853
ag1169
ag1181
ag4855
ag1175
ag1184
ag3661
ag1180
ag4857
atp4883
Rp4884
sg734
g1
((lp4885
g733
ag731
ag734
atp4886
Rp4887
sg2533
g1
((lp4888
S'hal'
p4889
ag2535
ag2533
atp4890
Rp4891
sg2951
g1
((lp4892
g2951
ag2949
atp4893
Rp4894
sg4809
g1
((lp4895
g4807
ag4809
atp4896
Rp4897
sS'gregory'
p4898
g1
((lp4899
g4898
aS'greg'
p4900
atp4901
Rp4902
sg1414
g1
((lp4903
g1399
ag1397
ag1401
ag1402
ag1403
ag1405
ag1406
ag1407
ag1408
ag1409
ag1410
ag1412
ag1413
ag1414
ag1415
ag1416
atp4904
Rp4905
sg4332
g1
((lp4906
g4332
ag4333
ag4330
atp4907
Rp4908
sg3711
g1
((lp4909
g3709
ag3710
ag3707
ag3711
atp4910
Rp4911
sg3166
g1
((lp4912
S'gus'
p4913
aS'austin'
p4914
aS'august'
p4915
ag3166
atp4916
Rp4917
sg103
g1
((lp4918
g103
ag101
atp4919
Rp4920
sg4578
g1
((lp4921
S'margy'
p4922
ag4578
aS'margie'
p4923
atp4924
Rp4925
sS'jasper'
p4926
g1
((lp4927
S'jap'
p4928
ag4926
aS'casper'
p4929
atp4930
Rp4931
sg3559
g1
((lp4932
g3559
ag3560
ag3557
atp4933
Rp4934
sg2117
g1
((lp4935
g4
ag2117
ag2127
aS'gus'
p4936
ag2112
ag2130
ag2120
atp4937
Rp4938
sg499
g1
((lp4939
g555
ag556
ag499
ag500
ag497
ag558
ag559
ag560
ag501
ag553
atp4940
Rp4941
sg1902
g1
((lp4942
g1900
ag1902
aS'delphia'
p4943
atp4944
Rp4945
sS'hez'
p4946
g1
((lp4947
S'hezekiah'
p4948
aS'hy'
p4949
ag4946
aS'kiah'
p4950
atp4951
Rp4952
sg4277
g1
((lp4953
g4275
ag4277
ag4278
atp4954
Rp4955
sg361
g1
((lp4956
g356
ag358
aS'millicent'
p4957
ag361
ag362
ag1933
ag366
atp4958
Rp4959
sg1712
g1
((lp4960
g1699
ag2765
aS'louis'
p4961
ag1702
ag1016
ag2064
ag1711
aS'lu'
p4962
ag1258
ag1020
ag1712
ag1022
ag1017
ag1253
atp4963
Rp4964
sg110
g1
((lp4965
g122
ag112
aS'dell'
p4966
ag2936
ag110
ag2189
aS'della'
p4967
atp4968
Rp4969
sS'jud'
p4970
g1
((lp4971
S'judson'
p4972
aS'sonny'
p4973
ag4970
atp4974
Rp4975
sg1214
g1
((lp4976
g1208
ag1209
ag1210
ag1212
ag1213
ag1206
ag1214
ag1215
ag1216
ag1217
atp4977
Rp4978
sg670
g1
((lp4979
g670
ag668
ag671
ag672
ag673
atp4980
Rp4981
sS'montesque'
p4982
g1
((lp4983
g4982
aS'monty'
p4984
atp4985
Rp4986
sg2237
g1
((lp4987
g2237
aS'della'
p4988
atp4989
Rp4990
sS'hody'
p4991
g1
((lp4992
S'jahoda'
p4993
aS'hoda'
p4994
aS'hodie'
p4995
ag4991
atp4996
Rp4997
sg4288
g1
((lp4998
g4288
aS'madeline'
p4999
aS'madelyn'
p5000
atp5001
Rp5002
sg1851
g1
((lp5003
S'vina'
p5004
ag1851
aS'wyncha'
p5005
aS'viney'
p5006
aS'vonnie'
p5007
atp5008
Rp5009
sg145
g1
((lp5010
S'jacob'
p5011
ag145
atp5012
Rp5013
sS'salome'
p5014
g1
((lp5015
S'loomie'
p5016
ag5014
atp5017
Rp5018
sg1960
g1
((lp5019
g1960
ag1958
ag1961
atp5020
Rp5021
sS'mellony'
p5022
g1
((lp5023
g5022
aS'mellia'
p5024
atp5025
Rp5026
sS'darkey'
p5027
g1
((lp5028
g5027
aS'dorcus'
p5029
atp5030
Rp5031
sS'manuel'
p5032
g1
((lp5033
S'emanuel'
p5034
ag5032
aS'manny'
p5035
ag446
ag443
atp5036
Rp5037
sg3322
g1
((lp5038
g3322
ag225
ag3320
atp5039
Rp5040
sS'jerita'
p5041
g1
((lp5042
g5041
aS'rita'
p5043
atp5044
Rp5045
sg2772
g1
((lp5046
g2772
ag2775
aS'app'
p5047
ag2773
aS'abner'
p5048
ag2774
aS'abbie'
p5049
ag4581
ag3375
ag2770
aS'abraham'
p5050
aS'absalom'
p5051
aS'abram'
p5052
ag3378
atp5053
Rp5054
sg1346
g1
((lp5055
g1350
ag1346
ag1347
ag1348
aS'john'
p5056
ag852
atp5057
Rp5058
sg3710
g1
((lp5059
g3709
ag3710
ag3707
ag3711
atp5060
Rp5061
sg997
g1
((lp5062
g1081
ag497
aS'alanson'
p5063
aS'lanson'
p5064
ag4151
ag1000
aS'alfonse'
p5065
ag499
ag501
ag1716
ag1172
ag1362
ag994
ag3392
ag1359
ag996
ag4049
ag997
ag1165
aS'alexander'
p5066
ag992
ag1183
ag1361
atp5067
Rp5068
sg2525
g1
((lp5069
g2524
aS'eli'
p5070
ag2525
atp5071
Rp5072
sg2801
g1
((lp5073
g2801
ag2802
ag2803
ag2804
ag2806
ag2799
ag2807
atp5074
Rp5075
sg2545
g1
((lp5076
g2543
ag2545
atp5077
Rp5078
sS'vickie'
p5079
g1
((lp5080
g5079
aS'victoria'
p5081
atp5082
Rp5083
sg727
g1
((lp5084
g727
ag719
ag728
ag724
atp5085
Rp5086
sg1202
g1
((lp5087
g1202
ag1203
ag1200
atp5088
Rp5089
sg1994
g1
((lp5090
g1990
ag1991
ag1992
ag1987
ag1993
ag1994
atp5091
Rp5092
sg2022
g1
((lp5093
g2020
ag2022
ag2023
atp5094
Rp5095
sg3566
g1
((lp5096
g3565
ag3566
ag3567
ag3568
ag3563
ag3569
atp5097
Rp5098
sg2038
g1
((lp5099
g2040
ag2034
ag2037
ag2038
atp5100
Rp5101
sS'brandy'
p5102
g1
((lp5103
g5102
aS'brenda'
p5104
atp5105
Rp5106
sS'perry'
p5107
g1
((lp5108
g5107
ag3672
aS'pelegrine'
p5109
atp5110
Rp5111
sS'kingsley'
p5112
g1
((lp5113
S'king'
p5114
ag5112
atp5115
Rp5116
sS'rafaela'
p5117
g1
((lp5118
S'rafa'
p5119
ag5117
atp5120
Rp5121
sg1799
g1
((lp5122
g2114
ag2115
ag2116
ag2856
ag2118
ag2119
ag4120
ag2396
ag2121
aS'christa'
p5123
aS'kristin'
p5124
ag1797
ag2122
ag1799
ag2124
ag2857
ag2852
ag1800
ag1801
ag2855
aS'kit'
p5125
aS'kristopher'
p5126
aS'kristen'
p5127
atp5128
Rp5129
sg2482
g1
((lp5130
g2480
ag2481
ag2482
ag2478
ag2483
atp5131
Rp5132
sS'trannie'
p5133
g1
((lp5134
g5133
aS'tranquilla'
p5135
aS'quilla'
p5136
atp5137
Rp5138
sg3745
g1
((lp5139
g3745
ag3751
aS'nettie'
p5140
atp5141
Rp5142
sS'viney'
p5143
g1
((lp5144
g1847
ag5143
aS'vina'
p5145
ag1845
ag1850
ag1851
aS'lavinia'
p5146
aS'ina'
p5147
aS'lavina'
p5148
atp5149
Rp5150
sg217
g1
((lp5151
g215
ag217
atp5152
Rp5153
sS'raphael'
p5154
g1
((lp5155
g5154
aS'ralph'
p5156
atp5157
Rp5158
sS'jebadiah'
p5159
g1
((lp5160
S'jeb'
p5161
ag5159
atp5162
Rp5163
sg1729
g1
((lp5164
g1729
aS'rick'
p5165
ag1734
aS'ricky'
p5166
atp5167
Rp5168
sS'adam'
p5169
g1
((lp5170
S'edie'
p5171
aS'ade'
p5172
ag5169
atp5173
Rp5174
sg1635
g1
((lp5175
g1630
ag860
ag1628
ag1631
ag1632
ag1633
ag1634
ag1635
ag863
atp5176
Rp5177
sg4623
g1
((lp5178
g4623
aS'edwin'
p5179
atp5180
Rp5181
sg4091
g1
((lp5182
g4089
ag4091
atp5183
Rp5184
sg2523
g1
((lp5185
g2521
ag2523
ag2526
ag2527
atp5186
Rp5187
sS'ali'
p5188
g1
((lp5189
S'alazama'
p5190
aS'alison'
p5191
ag5188
atp5192
Rp5193
sS'blanche'
p5194
g1
((lp5195
g5194
aS'bea'
p5196
atp5197
Rp5198
sg3021
g1
((lp5199
g3021
ag3020
ag3459
ag3022
atp5200
Rp5201
sS'monty'
p5202
g1
((lp5203
g4982
aS'montgomery'
p5204
ag5202
aS'gum'
p5205
ag1595
atp5206
Rp5207
sg368
g1
((lp5208
g3802
ag3804
ag2873
ag3805
ag351
ag359
ag3806
ag364
ag365
ag3807
ag368
atp5209
Rp5210
sg831
g1
((lp5211
g2458
ag831
ag2267
ag3317
aS'jennet'
p5212
ag3313
ag826
aS'jenny'
p5213
aS'jessica'
p5214
ag830
ag828
ag829
ag2462
atp5215
Rp5216
sg3884
g1
((lp5217
g3883
ag4677
ag3891
ag3884
ag3885
ag3887
aS'francine'
p5218
ag3888
ag3889
ag3890
atp5219
Rp5220
sg2918
g1
((lp5221
g2913
ag2915
ag2916
ag2917
ag2918
atp5222
Rp5223
sg746
g1
((lp5224
g745
ag746
ag737
ag740
atp5225
Rp5226
sg4841
g1
((lp5227
g4839
ag4841
ag4842
atp5228
Rp5229
sg2526
g1
((lp5230
g2521
ag2523
ag2526
ag2527
atp5231
Rp5232
sg2824
g1
((lp5233
g2824
aS'bert'
p5234
ag2820
ag2829
atp5235
Rp5236
sS'eleazer'
p5237
g1
((lp5238
g5237
aS'lazar'
p5239
atp5240
Rp5241
sg4100
g1
((lp5242
g4100
ag4101
aS'sophia'
p5243
ag4102
atp5244
Rp5245
sg3969
g1
((lp5246
g150
ag3969
ag3967
ag3970
ag154
atp5247
Rp5248
sg3521
g1
((lp5249
g3520
ag3518
ag3521
atp5250
Rp5251
sS'pheriba'
p5252
g1
((lp5253
S'pherbia'
p5254
ag5252
aS'ferbie'
p5255
atp5256
Rp5257
sg1389
g1
((lp5258
g1389
aS'helen'
p5259
atp5260
Rp5261
sS'leonidas'
p5262
g1
((lp5263
g5262
aS'leon'
p5264
aS'lee'
p5265
atp5266
Rp5267
sg1842
g1
((lp5268
g1837
ag1838
ag1839
ag1840
ag1841
ag1842
ag1835
atp5269
Rp5270
sg4190
g1
((lp5271
g4190
ag4191
ag4188
atp5272
Rp5273
sg1725
g1
((lp5274
g1726
ag1721
ag1724
ag1725
ag1727
atp5275
Rp5276
sg4961
g1
((lp5277
g1257
ag4961
aS'lou'
p5278
ag4962
ag1258
ag1253
atp5279
Rp5280
sg2524
g1
((lp5281
g2524
ag5070
ag2525
atp5282
Rp5283
sg1452
g1
((lp5284
g1450
ag1452
ag1453
atp5285
Rp5286
sg2534
g1
((lp5287
g624
ag2532
ag622
ag2530
ag2534
atp5288
Rp5289
sg2603
g1
((lp5290
g295
ag298
ag297
aS'elisa'
p5291
ag2602
ag300
ag291
ag292
ag294
ag361
ag302
ag1933
ag301
ag296
ag290
ag287
aS'alicia'
p5292
ag289
ag356
aS'elysia'
p5293
ag358
ag2600
ag2604
ag2603
atp5294
Rp5295
sg800
g1
((lp5296
g799
ag800
ag801
ag797
ag802
atp5297
Rp5298
sg1268
g1
((lp5299
S'maggie'
p5300
aS'lena'
p5301
ag1268
atp5302
Rp5303
sS'flick'
p5304
g1
((lp5305
g5304
aS'tick'
p5306
aS'felicity'
p5307
atp5308
Rp5309
sg4129
g1
((lp5310
g4129
ag4130
ag4133
ag4127
ag4131
atp5311
Rp5312
sg247
g1
((lp5313
g4475
ag65
ag4476
ag246
ag244
ag247
ag248
ag249
ag63
ag250
atp5314
Rp5315
sg1493
g1
((lp5316
g1488
ag1490
ag1491
ag1486
ag1493
ag1494
atp5317
Rp5318
sg1216
g1
((lp5319
g1208
ag1210
ag1206
ag1214
ag1215
ag1216
atp5320
Rp5321
sg908
g1
((lp5322
g2547
ag905
ag2546
ag907
ag908
atp5323
Rp5324
sg1565
g1
((lp5325
g1564
ag1565
ag1566
ag1567
ag1568
ag1569
ag1570
ag1562
ag1571
atp5326
Rp5327
sg4229
g1
((lp5328
g2772
ag4229
ag2773
ag2774
ag2770
ag4226
ag4230
atp5329
Rp5330
sg1735
g1
((lp5331
g1732
ag1735
ag1728
ag985
ag981
ag986
ag4269
ag1730
ag989
ag2559
atp5332
Rp5333
sg408
g1
((lp5334
g407
ag408
ag409
ag410
ag405
ag412
ag413
atp5335
Rp5336
sS'deborah'
p5337
g1
((lp5338
S'deb'
p5339
aS'debby'
p5340
aS'debbie'
p5341
ag5337
aS'debra'
p5342
atp5343
Rp5344
sg2396
g1
((lp5345
g2402
ag2396
ag5125
atp5346
Rp5347
sg2755
g1
((lp5348
g2749
ag2751
ag2752
ag2753
ag2754
ag2755
ag2756
atp5349
Rp5350
sS'micajah'
p5351
g1
((lp5352
g5351
aS'cage'
p5353
atp5354
Rp5355
sg1710
g1
((lp5356
g2762
aS'louise'
p5357
ag2767
ag2764
ag1710
atp5358
Rp5359
sg1685
g1
((lp5360
g2962
ag2963
ag1685
ag2964
ag1683
ag2966
ag2967
ag2968
ag1684
atp5361
Rp5362
sg5123
g1
((lp5363
S'chris'
p5364
ag5123
atp5365
Rp5366
sg4490
g1
((lp5367
g4490
aS'cordy'
p5368
ag4489
ag2715
ag4491
atp5369
Rp5370
sg2122
g1
((lp5371
g2125
ag2118
ag2119
ag2114
ag2121
ag2115
ag4120
ag2122
ag2123
ag2124
atp5372
Rp5373
sS'barnabas'
p5374
g1
((lp5375
S'barney'
p5376
ag5374
atp5377
Rp5378
sg2501
g1
((lp5379
g2491
ag2495
aS'victoria'
p5380
ag2499
ag2501
ag2502
ag2503
atp5381
Rp5382
sg5135
g1
((lp5383
g5133
ag5135
ag5136
atp5384
Rp5385
sg159
g1
((lp5386
g159
ag160
ag161
ag157
atp5387
Rp5388
sg4107
g1
((lp5389
g4106
ag4488
ag255
ag4107
ag259
atp5390
Rp5391
sg4824
g1
((lp5392
g4822
ag4824
atp5393
Rp5394
sg3946
g1
((lp5395
g3945
ag3943
ag3956
ag3946
atp5396
Rp5397
sg87
g1
((lp5398
g86
ag87
ag88
ag84
atp5399
Rp5400
sS'agatha'
p5401
g1
((lp5402
S'aggy'
p5403
ag5401
atp5404
Rp5405
sg2404
g1
((lp5406
g2393
ag2394
ag2395
ag2403
ag2397
ag2398
ag2399
ag2391
ag2400
ag2401
ag1530
ag2404
ag2406
ag2407
ag2408
atp5407
Rp5408
sS'raze'
p5409
g1
((lp5410
S'erasmus'
p5411
ag5409
aS'rasmus'
p5412
atp5413
Rp5414
sg4034
g1
((lp5415
g4032
ag4034
ag3177
atp5416
Rp5417
sg3964
g1
((lp5418
g3964
ag3962
atp5419
Rp5420
sS'alexandria'
p5421
g1
((lp5422
S'drina'
p5423
aS'sandra'
p5424
ag5421
aS'alla'
p5425
aS'alexander'
p5426
atp5427
Rp5428
sg1624
g1
((lp5429
g1622
aS'donald'
p5430
ag1624
aS'don'
p5431
ag1625
atp5432
Rp5433
sg3464
g1
((lp5434
S'vic'
p5435
ag2493
ag2494
ag3464
aS'calvin'
p5436
ag3465
aS'cal'
p5437
ag2500
ag183
atp5438
Rp5439
sg240
g1
((lp5440
g238
ag239
ag236
ag240
ag241
atp5441
Rp5442
sg4863
g1
((lp5443
g4862
ag4863
ag4860
atp5444
Rp5445
sg689
g1
((lp5446
g687
ag688
ag685
ag689
atp5447
Rp5448
sS'florence'
p5449
g1
((lp5450
g602
ag600
ag5449
aS'flo'
p5451
atp5452
Rp5453
sS'clifford'
p5454
g1
((lp5455
S'ford'
p5456
ag5454
aS'cliff'
p5457
atp5458
Rp5459
sg3280
g1
((lp5460
g3280
aS'jay'
p5461
atp5462
Rp5463
sg2397
g1
((lp5464
g2393
ag2394
ag2395
ag2403
ag2397
ag2398
ag2399
ag2391
ag2400
ag2401
ag1530
ag2404
ag2406
ag2407
ag2408
atp5465
Rp5466
sg1488
g1
((lp5467
g1488
ag1490
ag1491
ag1486
ag1493
ag1494
atp5468
Rp5469
sg5119
g1
((lp5470
g5119
ag5117
atp5471
Rp5472
sS'mort'
p5473
g1
((lp5474
S'mortimer'
p5475
ag5473
atp5476
Rp5477
sg2655
g1
((lp5478
g2652
ag4860
ag4863
ag2654
ag2655
atp5479
Rp5480
sg3200
g1
((lp5481
g3549
ag3200
ag3199
ag3201
ag3551
ag3197
ag3202
atp5482
Rp5483
sg4425
g1
((lp5484
g4425
ag4423
atp5485
Rp5486
sg2264
g1
((lp5487
g2980
ag2263
ag2264
ag2260
ag2262
ag1110
ag1112
atp5488
Rp5489
sg1144
g1
((lp5490
g1139
ag1141
ag1142
ag1143
ag1144
ag1145
atp5491
Rp5492
sS'floyd'
p5493
g1
((lp5494
g5493
aS'lloyd'
p5495
atp5496
Rp5497
sg1428
g1
((lp5498
g1426
ag1424
ag1427
ag1428
ag1429
atp5499
Rp5500
sg875
g1
((lp5501
g875
ag876
ag880
ag872
ag883
ag887
atp5502
Rp5503
sg877
g1
((lp5504
S'ara'
p5505
aS'belle'
p5506
aS'bella'
p5507
ag877
aS'arry'
p5508
atp5509
Rp5510
sg5293
g1
((lp5511
S'lisa'
p5512
ag5293
atp5513
Rp5514
sg4214
g1
((lp5515
g4214
ag4215
ag4212
atp5516
Rp5517
sg1211
g1
((lp5518
S'syl'
p5519
aS'sly'
p5520
ag1211
atp5521
Rp5522
sg1370
g1
((lp5523
g1368
ag84
ag1369
ag86
ag1366
ag87
ag1370
ag1371
atp5524
Rp5525
sg4637
g1
((lp5526
g4637
ag4635
atp5527
Rp5528
sg5126
g1
((lp5529
S'chris'
p5530
aS'kris'
p5531
ag5126
atp5532
Rp5533
sg1581
g1
((lp5534
g1580
ag1581
ag1582
ag1578
ag1583
atp5535
Rp5536
sg5339
g1
((lp5537
g5340
ag5342
ag5341
ag5339
ag581
ag5337
atp5538
Rp5539
sg1361
g1
((lp5540
g1359
ag1361
ag1362
ag1363
atp5541
Rp5542
sg4230
g1
((lp5543
g4226
aS'ab'
p5544
ag4229
ag4230
atp5545
Rp5546
sg5148
g1
((lp5547
g5145
ag5143
ag5147
ag5148
atp5548
Rp5549
sg1616
g1
((lp5550
g1614
ag1616
aS'clifford'
p5551
aS'cliff'
p5552
ag1617
atp5553
Rp5554
sg5048
g1
((lp5555
g5048
aS'ab'
p5556
atp5557
Rp5558
sS'iona'
p5559
g1
((lp5560
g5559
aS'onnie'
p5561
atp5562
Rp5563
sS'armilda'
p5564
g1
((lp5565
S'milly'
p5566
ag5564
atp5567
Rp5568
sg222
g1
((lp5569
g222
ag220
atp5570
Rp5571
sS'smitty'
p5572
g1
((lp5573
g5572
aS'smith'
p5574
atp5575
Rp5576
sS'court'
p5577
g1
((lp5578
S'curt'
p5579
ag5577
aS'courtney'
p5580
atp5581
Rp5582
sg2823
g1
((lp5583
g4046
ag2819
ag2827
ag2823
ag4313
ag4315
atp5584
Rp5585
sg4751
g1
((lp5586
S'tillie'
p5587
ag4751
atp5588
Rp5589
sg2216
g1
((lp5590
g2215
ag2216
ag2217
ag2213
atp5591
Rp5592
sg1756
g1
((lp5593
S'mena'
p5594
ag1756
ag1759
atp5595
Rp5596
sg1630
g1
((lp5597
S'dyer'
p5598
ag1630
ag1633
ag1632
aS'diah'
p5599
atp5600
Rp5601
sg664
g1
((lp5602
g663
ag661
ag664
ag665
atp5603
Rp5604
sg1541
g1
((lp5605
g2958
ag1538
ag1540
ag1542
ag1543
ag1541
atp5606
Rp5607
sg5254
g1
((lp5608
g5254
ag5252
ag5255
atp5609
Rp5610
sg3788
g1
((lp5611
g3786
ag1721
ag3788
ag1725
ag1727
atp5612
Rp5613
sg1567
g1
((lp5614
g1565
ag1566
ag1567
ag1568
ag1570
ag1562
atp5615
Rp5616
sg1792
g1
((lp5617
g1792
ag1793
ag1794
ag1790
atp5618
Rp5619
sg1749
g1
((lp5620
g2958
ag1538
ag1751
ag1749
aS'randy'
p5621
ag1542
ag1543
ag1750
ag1747
aS'randolph'
p5622
ag1541
atp5623
Rp5624
sg2297
g1
((lp5625
S'belle'
p5626
ag2297
aS'rose'
p5627
aS'roz'
p5628
aS'rosa'
p5629
atp5630
Rp5631
sg1829
g1
((lp5632
g1829
ag1830
ag1831
ag1827
ag1832
atp5633
Rp5634
sS'evaline'
p5635
g1
((lp5636
S'eva'
p5637
aS'lena'
p5638
ag5635
aS'eve'
p5639
atp5640
Rp5641
sS'davey'
p5642
g1
((lp5643
S'dave'
p5644
ag2159
ag5642
aS'david'
p5645
atp5646
Rp5647
sg446
g1
((lp5648
g443
ag445
ag446
atp5649
Rp5650
sg1916
g1
((lp5651
g1916
ag1914
atp5652
Rp5653
sg2327
g1
((lp5654
g3922
ag2326
ag3923
ag3920
aS'millie'
p5655
ag2327
atp5656
Rp5657
sS'leanne'
p5658
g1
((lp5659
g5658
aS'annie'
p5660
aS'lea'
p5661
atp5662
Rp5663
sg300
g1
((lp5664
g289
ag290
ag291
ag287
ag292
ag294
ag295
ag296
ag297
ag298
ag299
ag300
ag301
atp5665
Rp5666
sg1765
g1
((lp5667
g1764
ag1762
ag1765
atp5668
Rp5669
sg995
g1
((lp5670
g5423
ag5421
aS'alex'
p5671
ag995
ag998
aS'alexandra'
p5672
ag2712
ag5426
atp5673
Rp5674
sg427
g1
((lp5675
g424
ag427
aS'geraldine'
p5676
ag429
atp5677
Rp5678
sg1733
g1
((lp5679
S'ricky'
p5680
aS'rick'
p5681
ag1733
atp5682
Rp5683
sg250
g1
((lp5684
g246
ag244
ag247
ag248
ag249
ag250
atp5685
Rp5686
sS'isaac'
p5687
g1
((lp5688
g5687
aS'ike'
p5689
aS'zeke'
p5690
atp5691
Rp5692
sg2340
g1
((lp5693
g2333
ag2335
ag2336
ag2338
ag3981
ag3983
ag2340
ag2341
atp5694
Rp5695
sg1362
g1
((lp5696
g1359
ag1361
ag1362
ag1363
atp5697
Rp5698
sg1723
g1
((lp5699
g1731
ag1723
ag4419
ag4420
atp5700
Rp5701
sS'curtis'
p5702
g1
((lp5703
S'curt'
p5704
ag5702
atp5705
Rp5706
sg3153
g1
((lp5707
S'ollie'
p5708
aS'nollie'
p5709
aS'livia'
p5710
ag3153
atp5711
Rp5712
sg3716
g1
((lp5713
g3716
ag4761
ag3714
ag4764
atp5714
Rp5715
sS'bryan'
p5716
g1
((lp5717
S'brian'
p5718
aS'bryant'
p5719
ag5716
atp5720
Rp5721
sg1237
g1
((lp5722
S'bert'
p5723
ag1236
aS'birdie'
p5724
aS'bertie'
p5725
ag1240
ag1237
atp5726
Rp5727
sS'kasey'
p5728
g1
((lp5729
g5728
aS'k.c.'
p5730
atp5731
Rp5732
sg1225
g1
((lp5733
g1222
ag1226
aS'joan'
p5734
ag3106
ag1225
atp5735
Rp5736
sg3515
g1
((lp5737
S'dennis'
p5738
ag3305
ag3515
atp5739
Rp5740
sg542
g1
((lp5741
g891
ag193
ag533
ag197
ag536
ag195
ag539
ag196
ag542
ag529
ag544
ag545
ag546
ag201
atp5742
Rp5743
sS'jehiel'
p5744
g1
((lp5745
S'hiel'
p5746
ag5744
atp5747
Rp5748
sg919
g1
((lp5749
g918
ag919
ag916
atp5750
Rp5751
sg857
g1
((lp5752
g855
ag857
atp5753
Rp5754
sg5063
g1
((lp5755
g5063
aS'al'
p5756
ag5064
atp5757
Rp5758
sg2116
g1
((lp5759
g2126
ag4776
ag4777
ag2116
ag4778
aS'chris'
p5760
ag4779
atp5761
Rp5762
sg5205
g1
((lp5763
g5202
ag5205
ag5204
atp5764
Rp5765
sg5622
g1
((lp5766
S'dolph'
p5767
ag5621
ag5622
atp5768
Rp5769
sg119
g1
((lp5770
g119
ag3287
ag125
ag114
ag126
ag3289
atp5771
Rp5772
sg4498
g1
((lp5773
g4498
ag4499
aS'mary'
p5774
atp5775
Rp5776
sS'ernie'
p5777
g1
((lp5778
S'earnest'
p5779
aS'ernestine'
p5780
ag5777
ag630
atp5781
Rp5782
sS'daph'
p5783
g1
((lp5784
S'daphne'
p5785
ag5783
aS'daphie'
p5786
atp5787
Rp5788
sg1169
g1
((lp5789
g1033
ag1034
ag1031
ag1036
ag1169
ag1181
ag4855
ag1175
ag1184
ag1035
ag3031
ag1180
ag3028
atp5790
Rp5791
sg1091
g1
((lp5792
g1091
ag1089
atp5793
Rp5794
sg113
g1
((lp5795
S'delia'
p5796
aS'lena'
p5797
ag3253
ag113
aS'dell'
p5798
aS'addy'
p5799
aS'ada'
p5800
atp5801
Rp5802
sS'dunk'
p5803
g1
((lp5804
g5803
aS'duncan'
p5805
atp5806
Rp5807
sg2301
g1
((lp5808
g2302
ag2301
aS'jerry'
p5809
atp5810
Rp5811
sS'lawrence'
p5812
g1
((lp5813
g3047
aS'lorne'
p5814
ag5812
aS'lon'
p5815
ag3045
aS'laurence'
p5816
aS'larry'
p5817
aS'lonny'
p5818
aS'lorry'
p5819
atp5820
Rp5821
sg2513
g1
((lp5822
g2509
ag2511
ag2512
ag2513
atp5823
Rp5824
sg3896
g1
((lp5825
g3896
ag3894
atp5826
Rp5827
sg451
g1
((lp5828
g451
ag1419
ag449
atp5829
Rp5830
sS'bartholomew'
p5831
g1
((lp5832
g1818
aS'bart'
p5833
ag1821
ag1822
ag5831
ag1824
atp5834
Rp5835
sg4130
g1
((lp5836
S'benjamin'
p5837
ag4130
ag4133
aS'bennie'
p5838
aS'ben'
p5839
atp5840
Rp5841
sg5340
g1
((lp5842
g5340
aS'debra'
p5843
ag5341
aS'deb'
p5844
ag581
aS'deborah'
p5845
atp5846
Rp5847
sg2205
g1
((lp5848
g1213
aS'sly'
p5849
ag2205
ag1209
ag3073
ag3074
ag3075
ag1217
atp5850
Rp5851
sg456
g1
((lp5852
g456
ag454
ag457
atp5853
Rp5854
sg5146
g1
((lp5855
S'vina'
p5856
aS'viney'
p5857
ag5146
aS'ina'
p5858
atp5859
Rp5860
sS'daisy'
p5861
g1
((lp5862
g314
aS'margaret'
p5863
ag316
ag317
ag318
ag319
ag320
ag321
ag322
ag312
ag323
ag324
ag5861
ag326
ag327
ag328
ag329
ag330
ag331
ag332
ag333
ag325
ag335
atp5864
Rp5865
sg2793
g1
((lp5866
g2792
ag2420
ag2418
ag2416
ag2421
ag2788
ag2791
ag2790
ag2793
atp5867
Rp5868
sg4294
g1
((lp5869
g4291
ag4293
ag4294
atp5870
Rp5871
sg426
g1
((lp5872
g3798
ag428
ag430
ag3799
ag426
atp5873
Rp5874
sg276
g1
((lp5875
g273
ag274
ag276
ag698
ag271
ag699
ag275
atp5876
Rp5877
sg1622
g1
((lp5878
g1622
ag5430
ag1624
ag5431
ag1625
atp5879
Rp5880
sg3409
g1
((lp5881
S'felty'
p5882
ag3407
ag3409
ag3408
atp5883
Rp5884
sg3410
g1
((lp5885
S'felty'
p5886
ag3410
atp5887
Rp5888
sS'tanny'
p5889
g1
((lp5890
S'tanafra'
p5891
ag5889
atp5892
Rp5893
sg4132
g1
((lp5894
g4132
aS'bennie'
p5895
aS'ben'
p5896
atp5897
Rp5898
sg3285
g1
((lp5899
g3285
ag3286
ag4124
atp5900
Rp5901
sg2995
g1
((lp5902
g2993
ag2991
ag2994
ag2995
ag2996
atp5903
Rp5904
sg5161
g1
((lp5905
g5161
ag5159
atp5906
Rp5907
sg3813
g1
((lp5908
g65
ag3811
ag244
ag247
ag3813
ag1974
ag3766
ag3814
ag63
ag250
ag3815
ag251
ag252
atp5909
Rp5910
sg1634
g1
((lp5911
g1635
aS'jedidiah'
p5912
ag1631
ag1628
ag1634
atp5913
Rp5914
sg4993
g1
((lp5915
g4993
ag4994
ag4995
ag4991
atp5916
Rp5917
sg1558
g1
((lp5918
g1557
ag1558
ag1555
ag1559
atp5919
Rp5920
sg2253
g1
((lp5921
g2250
ag2252
ag2253
atp5922
Rp5923
sg3725
g1
((lp5924
g3721
ag3722
ag3723
ag3719
ag3724
ag3725
atp5925
Rp5926
sS'naldo'
p5927
g1
((lp5928
g5927
aS'ron'
p5929
aS'reginald'
p5930
aS'renny'
p5931
aS'ronald'
p5932
aS'reggie'
p5933
aS'reg'
p5934
aS'ronny'
p5935
atp5936
Rp5937
sg2591
g1
((lp5938
g2594
ag2679
ag2586
ag2584
ag2590
ag2585
ag2587
ag2588
ag2591
atp5939
Rp5940
sg4602
g1
((lp5941
g4599
ag4601
ag4602
atp5942
Rp5943
sg4133
g1
((lp5944
g5837
ag4130
ag5838
ag5839
ag3721
ag3719
ag3723
ag4133
ag3724
ag3725
atp5945
Rp5946
sg4877
g1
((lp5947
g4877
aS'dicey'
p5948
atp5949
Rp5950
sg5780
g1
((lp5951
g5777
ag633
ag634
ag5779
ag635
ag2129
ag5780
atp5952
Rp5953
sg823
g1
((lp5954
g823
ag821
atp5955
Rp5956
sS'gertie'
p5957
g1
((lp5958
g4007
ag5957
aS'gert'
p5959
ag4011
atp5960
Rp5961
sg2045
g1
((lp5962
g2045
ag2043
ag2046
ag2047
ag2048
atp5963
Rp5964
sg5114
g1
((lp5965
g5114
aS'kingston'
p5966
ag5112
atp5967
Rp5968
sg3877
g1
((lp5969
g3877
ag3878
ag3875
atp5970
Rp5971
sg4900
g1
((lp5972
g4898
ag4900
atp5973
Rp5974
sg4842
g1
((lp5975
g4839
ag4841
ag4842
atp5976
Rp5977
sg3121
g1
((lp5978
g3121
ag3120
ag3118
ag3122
atp5979
Rp5980
sg4206
g1
((lp5981
g4206
ag4204
atp5982
Rp5983
sS'charlotte'
p5984
g1
((lp5985
g5984
ag4804
aS'lotta'
p5986
ag4299
aS'char'
p5987
aS'sherry'
p5988
ag4300
aS'lottie'
p5989
atp5990
Rp5991
sS'creasey'
p5992
g1
((lp5993
S'lucretia'
p5994
ag5992
atp5995
Rp5996
sg124
g1
((lp5997
g117
ag111
ag3126
ag3127
ag3129
ag124
atp5998
Rp5999
sg4851
g1
((lp6000
S'will'
p6001
aS'willy'
p6002
ag4851
aS'willie'
p6003
atp6004
Rp6005
sS'winnifred'
p6006
g1
((lp6007
g721
ag6006
aS'winnie'
p6008
ag1170
ag725
ag726
atp6009
Rp6010
sg291
g1
((lp6011
g289
ag290
ag291
ag287
ag292
ag294
ag295
ag296
ag297
ag298
ag299
ag300
ag301
atp6012
Rp6013
sg3448
g1
((lp6014
g3449
ag3446
ag3448
atp6015
Rp6016
sg112
g1
((lp6017
g122
ag112
aS'lillah'
p6018
ag4966
ag1007
ag110
aS'lilly'
p6019
aS'lily'
p6020
aS'lolly'
p6021
ag4967
atp6022
Rp6023
sg3120
g1
((lp6024
g1442
ag1440
ag3118
ag1438
ag3120
ag3121
ag3122
atp6025
Rp6026
sg2048
g1
((lp6027
g2045
ag2043
ag2046
ag2047
ag2048
atp6028
Rp6029
sg386
g1
((lp6030
g385
ag383
ag386
ag387
ag4758
atp6031
Rp6032
sg1832
g1
((lp6033
g5723
ag1236
ag1237
ag5725
aS'babs'
p6034
aS'bab'
p6035
ag1832
aS'barby'
p6036
aS'barbara'
p6037
ag5724
atp6038
Rp6039
sg5988
g1
((lp6040
g5984
ag5986
ag5987
ag5988
ag4059
ag5989
ag4061
ag4062
atp6041
Rp6042
sg301
g1
((lp6043
g289
ag290
ag291
ag287
ag292
ag293
ag294
ag295
ag296
ag297
ag298
ag299
ag300
ag301
ag302
atp6044
Rp6045
sg2631
g1
((lp6046
S'amos'
p6047
ag2631
aS'moses'
p6048
ag2633
atp6049
Rp6050
sg3565
g1
((lp6051
g3565
ag3566
ag3567
ag3568
ag3563
ag3569
atp6052
Rp6053
sg241
g1
((lp6054
g238
ag239
ag236
ag240
ag241
atp6055
Rp6056
sg2007
g1
((lp6057
S'rena'
p6058
ag2007
atp6059
Rp6060
sg742
g1
((lp6061
g741
ag2243
ag742
ag744
ag743
ag747
ag748
ag2244
atp6062
Rp6063
sg3849
g1
((lp6064
g3849
ag3943
ag3956
ag3847
ag3946
atp6065
Rp6066
sg1838
g1
((lp6067
g1837
ag1838
ag1839
ag1840
ag1841
ag1842
ag1835
atp6068
Rp6069
sg1178
g1
((lp6070
g1512
ag3756
ag722
ag3760
ag1170
aS'frederick'
p6071
ag3759
ag1513
ag1178
ag1177
ag1168
ag1173
ag1171
atp6072
Rp6073
sg4645
g1
((lp6074
g4645
ag4643
atp6075
Rp6076
sg3923
g1
((lp6077
g3922
ag3923
ag3924
ag3920
atp6078
Rp6079
sg2633
g1
((lp6080
g6047
ag2631
ag6048
ag2633
atp6081
Rp6082
sg998
g1
((lp6083
g5423
ag5421
ag5671
ag995
ag4160
ag998
ag5672
ag2926
ag2712
ag5426
atp6084
Rp6085
sg5785
g1
((lp6086
g5785
ag5783
ag5786
atp6087
Rp6088
sg2406
g1
((lp6089
g2394
ag1429
ag1426
ag2399
aS'kate'
p6090
ag2408
ag2403
ag1521
ag2401
ag1534
ag2393
ag2395
ag1527
ag2391
ag1187
ag1530
ag2406
ag1428
ag1424
ag2400
ag2397
ag2404
atp6091
Rp6092
sg610
g1
((lp6093
g2315
aS'mac'
p6094
ag610
ag2313
aS'mc'
p6095
atp6096
Rp6097
sg3022
g1
((lp6098
g3019
ag3459
ag739
ag3020
ag3021
aS'ronnie'
p6099
ag3022
atp6100
Rp6101
sS'mavine'
p6102
g1
((lp6103
g6102
aS'mave'
p6104
atp6105
Rp6106
sg3922
g1
((lp6107
g3922
ag3923
ag3924
ag3920
atp6108
Rp6109
sS'cleat'
p6110
g1
((lp6111
g6110
aS'cleatus'
p6112
atp6113
Rp6114
sg5190
g1
((lp6115
g5190
ag5188
atp6116
Rp6117
sg206
g1
((lp6118
S'chet'
p6119
ag206
atp6120
Rp6121
sg41
g1
((lp6122
S'gabriel'
p6123
ag39
ag41
ag42
ag44
atp6124
Rp6125
sg1331
g1
((lp6126
g1330
ag1331
ag1328
ag1332
atp6127
Rp6128
sS'vinnie'
p6129
g1
((lp6130
g5435
ag6129
aS'vince'
p6131
ag2496
ag2498
ag2500
ag183
atp6132
Rp6133
sg653
g1
((lp6134
g653
ag651
atp6135
Rp6136
sg3888
g1
((lp6137
g3883
ag4677
ag3891
ag3884
ag3885
ag3887
ag3888
ag3889
ag3890
atp6138
Rp6139
sS'phoebe'
p6140
g1
((lp6141
g867
aS'philipina'
p6142
ag6140
aS'penie'
p6143
atp6144
Rp6145
sg1550
g1
((lp6146
g1548
ag1549
ag1550
ag1551
ag1552
ag1546
atp6147
Rp6148
sg1822
g1
((lp6149
g1818
ag1820
ag1821
ag1822
ag1823
ag1824
atp6150
Rp6151
sg1955
g1
((lp6152
g1955
ag1953
atp6153
Rp6154
sg1856
g1
((lp6155
g1856
ag1854
atp6156
Rp6157
sg646
g1
((lp6158
g646
ag647
ag648
ag644
atp6159
Rp6160
sg5805
g1
((lp6161
g5803
ag5805
atp6162
Rp6163
sg115
g1
((lp6164
g108
ag109
ag115
ag116
ag106
ag121
atp6165
Rp6166
sS'artemus'
p6167
g1
((lp6168
g6167
aS'art'
p6169
atp6170
Rp6171
sg1110
g1
((lp6172
g2980
ag1109
ag5767
ag1110
ag1112
ag5622
atp6173
Rp6174
sg2358
g1
((lp6175
g2358
aS'cindy'
p6176
atp6177
Rp6178
sg2632
g1
((lp6179
g2629
ag2631
ag2632
ag2633
atp6180
Rp6181
sg4995
g1
((lp6182
g4993
ag4994
ag4995
ag4991
atp6183
Rp6184
sS'biddy'
p6185
g1
((lp6186
g1271
ag6185
ag1274
ag1275
aS'biddie'
p6187
atp6188
Rp6189
sg4616
g1
((lp6190
g4616
aS'pat'
p6191
aS'patricia'
p6192
ag4619
aS'patty'
p6193
atp6194
Rp6195
sg3407
g1
((lp6196
g5882
ag3407
ag3409
ag3408
atp6197
Rp6198
sS'vinson'
p6199
g1
((lp6200
S'vinny'
p6201
ag6199
atp6202
Rp6203
sg2434
g1
((lp6204
g2434
ag433
ag4630
ag2432
atp6205
Rp6206
sg5292
g1
((lp6207
S'lisa'
p6208
ag5292
aS'elsie'
p6209
aS'allie'
p6210
atp6211
Rp6212
sg560
g1
((lp6213
g555
ag556
ag557
ag558
ag559
ag560
ag553
atp6214
Rp6215
sg1570
g1
((lp6216
g3107
ag1566
ag3109
ag1568
ag1570
ag3108
atp6217
Rp6218
sS'franklind'
p6219
g1
((lp6220
S'frank'
p6221
ag6219
atp6222
Rp6223
sg2809
g1
((lp6224
S'jane'
p6225
aS'jeannie'
p6226
ag2809
atp6227
Rp6228
sg330
g1
((lp6229
g488
ag320
ag489
ag490
ag323
ag330
ag316
ag326
ag491
ag492
ag319
ag493
ag494
ag329
atp6230
Rp6231
sS'tabby'
p6232
g1
((lp6233
S'tabitha'
p6234
ag6232
atp6235
Rp6236
sg4293
g1
((lp6237
g4291
ag4293
ag4294
atp6238
Rp6239
sS'carlotta'
p6240
g1
((lp6241
g6240
aS'lottie'
p6242
atp6243
Rp6244
sg1551
g1
((lp6245
g1548
ag1549
ag1550
ag1551
ag1552
ag1546
atp6246
Rp6247
sg2360
g1
((lp6248
g2360
ag2354
ag2361
ag2350
ag2359
atp6249
Rp6250
sg2500
g1
((lp6251
g5435
ag2493
ag2494
ag2496
ag2498
ag2500
atp6252
Rp6253
sg1542
g1
((lp6254
g2958
ag1538
ag1540
ag1542
ag1543
ag1541
atp6255
Rp6256
sS'art'
p6257
g1
((lp6258
S'arthur'
p6259
ag6257
ag6167
atp6260
Rp6261
sg5833
g1
((lp6262
g1818
ag5833
ag1821
ag2865
ag1822
ag5831
ag1824
atp6263
Rp6264
sS'maurice'
p6265
g1
((lp6266
S'morey'
p6267
ag6265
atp6268
Rp6269
sg5145
g1
((lp6270
g1847
ag5143
aS'melvina'
p6271
ag5145
ag1845
ag1850
ag1851
ag5146
ag5147
ag5148
atp6272
Rp6273
sg2293
g1
((lp6274
g875
ag877
ag2291
ag872
ag2293
ag2295
atp6275
Rp6276
sg4651
g1
((lp6277
g4650
ag4651
ag4648
ag4652
atp6278
Rp6279
sg543
g1
((lp6280
S'nora'
p6281
ag543
atp6282
Rp6283
sS'leslie'
p6284
g1
((lp6285
S'les'
p6286
ag6284
atp6287
Rp6288
sg2639
g1
((lp6289
g2636
ag2638
ag2639
atp6290
Rp6291
sg2031
g1
((lp6292
g2027
ag2903
ag2028
ag2904
ag2029
ag2030
ag2031
atp6293
Rp6294
sg283
g1
((lp6295
g281
ag282
ag283
ag279
ag284
atp6296
Rp6297
sS'allie'
p6298
g1
((lp6299
g5234
aS'lena'
p6300
ag1757
ag5292
ag2600
ag3086
ag2829
ag2604
ag2824
ag2603
aS'aileen'
p6301
ag1754
ag6298
atp6302
Rp6303
sg2527
g1
((lp6304
g2521
ag2523
ag1792
ag4063
ag1790
aS'levi'
p6305
ag5264
ag4061
ag1793
aS'nora'
p6306
ag2526
ag4059
aS'lenora'
p6307
ag5262
ag2527
atp6308
Rp6309
sg6271
g1
((lp6310
S'vina'
p6311
ag6271
atp6312
Rp6313
sg1841
g1
((lp6314
g1837
ag1838
ag1839
ag1840
ag1841
ag1842
ag1835
atp6315
Rp6316
sg3411
g1
((lp6317
g3405
ag3411
atp6318
Rp6319
sg950
g1
((lp6320
g950
ag948
atp6321
Rp6322
sg5043
g1
((lp6323
g314
ag315
ag316
ag317
ag318
ag319
ag320
ag321
ag5043
ag312
ag323
ag324
ag325
ag326
ag327
ag328
ag329
ag330
ag331
ag332
ag333
ag334
ag335
ag5041
atp6324
Rp6325
sS'clarinda'
p6326
g1
((lp6327
g6326
aS'clara'
p6328
atp6329
Rp6330
sg4703
g1
((lp6331
g4703
ag3056
aS'rose'
p6332
ag3057
ag4039
ag3058
atp6333
Rp6334
sg1028
g1
((lp6335
g1028
ag1026
atp6336
Rp6337
sg633
g1
((lp6338
g634
ag2129
ag636
ag633
ag635
atp6339
Rp6340
sg5109
g1
((lp6341
g5107
ag5109
atp6342
Rp6343
sg5689
g1
((lp6344
g5687
ag5689
ag5690
atp6345
Rp6346
sg4500
g1
((lp6347
g4500
aS'mary'
p6348
atp6349
Rp6350
sg4471
g1
((lp6351
S'lydia'
p6352
ag4471
ag4469
atp6353
Rp6354
sg1330
g1
((lp6355
g1330
ag1331
ag1328
ag1332
atp6356
Rp6357
sg412
g1
((lp6358
g5658
ag407
ag5661
ag408
ag409
ag2609
ag410
ag2607
ag405
ag412
ag2613
ag4121
ag2614
ag4122
atp6359
Rp6360
sS'edythe'
p6361
g1
((lp6362
S'edie'
p6363
aS'edye'
p6364
ag6361
atp6365
Rp6366
sg3590
g1
((lp6367
g3586
ag4749
ag4616
ag4752
ag3584
ag6192
ag3587
ag504
ag3588
ag506
ag3589
ag3590
atp6368
Rp6369
sg4652
g1
((lp6370
g4648
ag1306
ag4652
ag4172
ag4650
ag4651
ag4170
atp6371
Rp6372
sg5574
g1
((lp6373
g5572
ag5574
atp6374
Rp6375
sg3477
g1
((lp6376
g3477
ag3475
ag3478
atp6377
Rp6378
sS'darlene'
p6379
g1
((lp6380
S'lena'
p6381
aS'darry'
p6382
ag6379
atp6383
Rp6384
sS'leon'
p6385
g1
((lp6386
g1139
ag5265
ag1141
ag4742
ag4745
ag1142
aS'leo'
p6387
ag6385
ag1144
ag5262
ag4746
ag2182
atp6388
Rp6389
sS'lauryn'
p6390
g1
((lp6391
S'laurie'
p6392
ag6390
atp6393
Rp6394
sg3580
g1
((lp6395
S'samantha'
p6396
ag3580
ag3578
ag3581
aS'mantha'
p6397
atp6398
Rp6399
sg2638
g1
((lp6400
g2636
ag2638
ag2639
atp6401
Rp6402
sg986
g1
((lp6403
g983
ag984
ag985
ag981
ag986
ag987
ag988
ag989
atp6404
Rp6405
sg1929
g1
((lp6406
g1927
ag1929
atp6407
Rp6408
sg1347
g1
((lp6409
g1347
ag5056
ag1350
ag1346
atp6410
Rp6411
sg4650
g1
((lp6412
g4650
ag4651
ag4648
ag4652
atp6413
Rp6414
sg2886
g1
((lp6415
g4856
ag2886
ag2887
ag2888
ag4854
atp6416
Rp6417
sg4321
g1
((lp6418
g4321
ag4319
atp6419
Rp6420
sg4385
g1
((lp6421
g4385
ag4383
atp6422
Rp6423
sg4764
g1
((lp6424
S'wally'
p6425
aS'walt'
p6426
ag4764
atp6427
Rp6428
sg2393
g1
((lp6429
g2393
ag2394
ag2395
ag2403
ag2397
ag2398
ag2399
ag2391
ag2400
ag2401
ag1530
aS'kathryn'
p6430
ag2404
ag2406
ag2407
ag2408
atp6431
Rp6432
sg3608
g1
((lp6433
g3606
ag3608
atp6434
Rp6435
sg3234
g1
((lp6436
g108
ag109
ag113
ag106
ag3231
ag115
ag3234
atp6437
Rp6438
sS'anthony'
p6439
g1
((lp6440
g6439
aS'tony'
p6441
atp6442
Rp6443
sg1177
g1
((lp6444
g2896
aS'freddy'
p6445
ag1177
ag6071
aS'fred'
p6446
atp6447
Rp6448
sg1530
g1
((lp6449
g1523
ag1524
ag1525
ag1526
ag2398
ag1533
ag1529
ag1530
ag1531
aS'kay'
p6450
ag2407
ag1535
atp6451
Rp6452
sg5255
g1
((lp6453
g5254
ag5252
ag5255
atp6454
Rp6455
sg6301
g1
((lp6456
g891
ag6300
ag194
ag195
ag196
ag197
ag198
ag199
ag6301
ag6298
atp6457
Rp6458
sg4002
g1
((lp6459
g4002
aS'george'
p6460
aS'georgiana'
p6461
atp6462
Rp6463
sg1181
g1
((lp6464
g4881
aS'will'
p6465
ag1179
ag4853
ag1169
ag1181
ag4855
ag1175
ag1184
ag1180
ag4857
ag4827
atp6466
Rp6467
sg2201
g1
((lp6468
g2199
ag2201
atp6469
Rp6470
sS'mindie'
p6471
g1
((lp6472
g6471
aS'arminda'
p6473
atp6474
Rp6475
sg1639
g1
((lp6476
g1639
aS'dom'
p6477
atp6478
Rp6479
sg1911
g1
((lp6480
g1911
ag1909
atp6481
Rp6482
sg2588
g1
((lp6483
g2594
ag2679
ag2586
ag2584
ag2590
ag2585
ag2587
ag2588
ag2591
atp6484
Rp6485
sg2058
g1
((lp6486
g2058
ag2059
ag2060
ag2056
atp6487
Rp6488
sg4454
g1
((lp6489
g4452
ag4454
ag4455
atp6490
Rp6491
sS'von'
p6492
g1
((lp6493
S'levone'
p6494
aS'lavonne'
p6495
ag6492
atp6496
Rp6497
sg3402
g1
((lp6498
g3400
ag3402
ag5728
atp6499
Rp6500
sg5376
g1
((lp6501
g576
ag574
ag5376
ag5374
ag578
atp6502
Rp6503
sg3857
g1
((lp6504
g3855
ag3857
ag3858
ag3859
atp6505
Rp6506
sg3970
g1
((lp6507
g150
ag3969
ag3967
ag3970
ag154
atp6508
Rp6509
sg2654
g1
((lp6510
g2652
ag2654
ag2655
atp6511
Rp6512
sg5016
g1
((lp6513
g5016
ag5014
atp6514
Rp6515
sg4061
g1
((lp6516
g4059
ag4061
ag4062
ag4063
atp6517
Rp6518
sg2575
g1
((lp6519
g2573
ag2575
atp6520
Rp6521
sg3539
g1
((lp6522
g3538
ag3536
ag3539
atp6523
Rp6524
sg1632
g1
((lp6525
g1630
ag5599
ag1632
aS'obediah'
p6526
ag1633
ag5598
atp6527
Rp6528
sg1045
g1
((lp6529
g4330
ag4332
ag1042
ag1044
ag1045
atp6530
Rp6531
sg2725
g1
((lp6532
g2722
ag2724
ag2725
atp6533
Rp6534
sg3316
g1
((lp6535
S'jan'
p6536
ag3316
atp6537
Rp6538
sg1159
g1
((lp6539
g1646
ag1159
ag1160
atp6540
Rp6541
sg1549
g1
((lp6542
g1548
ag1549
ag1550
ag1551
ag1552
ag1546
atp6543
Rp6544
sg5779
g1
((lp6545
g5779
ag5780
ag5777
atp6546
Rp6547
sg3696
g1
((lp6548
g3696
ag4462
ag3697
ag3698
atp6549
Rp6550
sg2614
g1
((lp6551
g2613
ag2607
ag2614
ag2611
ag2609
atp6552
Rp6553
sS'reginald'
p6554
g1
((lp6555
g5927
ag3493
ag6554
ag5931
aS'reggie'
p6556
ag5934
atp6557
Rp6558
sg2694
g1
((lp6559
g2694
ag2692
ag2695
atp6560
Rp6561
sS'horry'
p6562
g1
((lp6563
g6562
aS'horace'
p6564
atp6565
Rp6566
sg2422
g1
((lp6567
g2422
aS'josey'
p6568
atp6569
Rp6570
sS'lester'
p6571
g1
((lp6572
S'les'
p6573
ag6571
atp6574
Rp6575
sg4056
g1
((lp6576
g4056
ag4054
atp6577
Rp6578
sg3581
g1
((lp6579
g3581
ag2208
ag6396
ag3578
aS'samson'
p6580
ag3580
ag6397
atp6581
Rp6582
sg3858
g1
((lp6583
g3855
ag3857
ag3858
atp6584
Rp6585
sS'adrienne'
p6586
g1
((lp6587
g6586
aS'adrian'
p6588
atp6589
Rp6590
sg363
g1
((lp6591
g353
ag355
ag357
ag363
aS'mel'
p6592
ag360
atp6593
Rp6594
sg3697
g1
((lp6595
g3696
ag4462
ag3697
ag3698
atp6596
Rp6597
sg440
g1
((lp6598
g6102
ag438
ag440
atp6599
Rp6600
sg836
g1
((lp6601
g834
ag836
ag837
atp6602
Rp6603
sg2746
g1
((lp6604
g2744
ag2746
atp6605
Rp6606
sg5580
g1
((lp6607
g5579
ag5577
ag5580
atp6608
Rp6609
sg5029
g1
((lp6610
g5027
ag5029
atp6611
Rp6612
sg2741
g1
((lp6613
g2741
ag2736
ag2740
aS'minnie'
p6614
ag2738
ag2739
atp6615
Rp6616
sg6112
g1
((lp6617
g6110
ag6112
atp6618
Rp6619
sg1610
g1
((lp6620
g1610
ag1397
ag1401
ag1402
ag1403
ag1405
ag1406
ag1407
ag1408
ag1409
ag1410
ag1412
ag1413
ag1414
ag1611
ag1608
atp6621
Rp6622
sS'caldonia'
p6623
g1
((lp6624
S'calliedona'
p6625
ag6623
atp6626
Rp6627
sS'ambrose'
p6628
g1
((lp6629
g6628
aS'brose'
p6630
atp6631
Rp6632
sg469
g1
((lp6633
g466
ag468
ag469
atp6634
Rp6635
sg1625
g1
((lp6636
g1622
ag5430
ag1624
ag5431
ag1625
atp6637
Rp6638
sg6259
g1
((lp6639
g6259
ag6257
atp6640
Rp6641
sg5994
g1
((lp6642
g5994
ag5992
atp6643
Rp6644
sg1349
g1
((lp6645
g1349
aS'john'
p6646
atp6647
Rp6648
sg4972
g1
((lp6649
g4972
ag4973
ag4970
atp6650
Rp6651
sg2724
g1
((lp6652
g2722
ag2724
ag2725
atp6653
Rp6654
sg3549
g1
((lp6655
S'freddy'
p6656
aS'frieda'
p6657
ag3549
aS'freda'
p6658
ag3551
atp6659
Rp6660
sg985
g1
((lp6661
g983
ag984
ag985
ag981
ag986
ag987
ag988
ag989
atp6662
Rp6663
sg3721
g1
((lp6664
g3721
ag3722
ag3723
ag3719
ag3724
ag3725
atp6665
Rp6666
sg3184
g1
((lp6667
g3184
ag3182
ag3185
atp6668
Rp6669
sg2279
g1
((lp6670
g2277
ag2279
atp6671
Rp6672
sg5342
g1
((lp6673
g5339
ag5340
ag5341
ag5337
ag5342
atp6674
Rp6675
sg3383
g1
((lp6676
g3383
ag3381
atp6677
Rp6678
sS'lorraine'
p6679
g1
((lp6680
g6679
aS'lorrie'
p6681
atp6682
Rp6683
sg6494
g1
((lp6684
g6494
aS'von'
p6685
atp6686
Rp6687
sg4121
g1
((lp6688
S'nancy'
p6689
aS'nana'
p6690
aS'ann'
p6691
aS'nan'
p6692
aS'nanny'
p6693
aS'annie'
p6694
ag4121
ag4122
atp6695
Rp6696
sg321
g1
((lp6697
g314
ag312
ag332
ag331
ag324
ag327
ag334
ag317
ag315
ag333
ag328
ag318
ag325
ag335
ag321
ag322
atp6698
Rp6699
sg4122
g1
((lp6700
g411
ag6691
ag1783
ag3110
ag1785
ag3112
ag6694
ag3750
ag4121
ag4122
ag3743
atp6701
Rp6702
sg4235
g1
((lp6703
g4233
ag4235
atp6704
Rp6705
sg1490
g1
((lp6706
g1488
ag1490
ag1491
ag1486
ag1493
ag1494
atp6707
Rp6708
sg1491
g1
((lp6709
g533
ag542
ag1488
ag1490
ag1491
ag529
ag544
ag545
ag1486
ag1493
ag546
ag1494
ag539
atp6710
Rp6711
sg2930
g1
((lp6712
g2931
ag2923
ag2932
ag2928
ag2930
ag2927
ag2921
atp6713
Rp6714
sg5380
g1
((lp6715
g3735
ag5079
aS'vicki'
p6716
ag5380
ag2499
aS'vicky'
p6717
ag2502
atp6718
Rp6719
sS'athy'
p6720
g1
((lp6721
g6720
aS'eighta'
p6722
atp6723
Rp6724
sg682
g1
((lp6725
g682
ag680
atp6726
Rp6727
sg2609
g1
((lp6728
g2613
ag2607
ag2614
ag2611
ag2609
atp6729
Rp6730
sg1971
g1
((lp6731
g1969
ag1971
atp6732
Rp6733
sg1483
g1
((lp6734
g1481
ag1483
atp6735
Rp6736
sg2310
g1
((lp6737
g2307
ag2310
ag2308
aS'roland'
p6738
aS'orlando'
p6739
atp6740
Rp6741
sg3724
g1
((lp6742
g3721
ag3722
ag3723
ag3719
ag3724
ag3725
atp6743
Rp6744
sg918
g1
((lp6745
g918
ag919
ag916
atp6746
Rp6747
sg4520
g1
((lp6748
g4518
ag4520
atp6749
Rp6750
sg3917
g1
((lp6751
g3917
ag3915
atp6752
Rp6753
sg2307
g1
((lp6754
g2307
ag2310
ag2308
ag6738
ag6739
atp6755
Rp6756
sg2994
g1
((lp6757
g2993
ag2991
ag2994
ag2995
ag2996
atp6758
Rp6759
sg5191
g1
((lp6760
g5191
aS'ali'
p6761
atp6762
Rp6763
sg4172
g1
((lp6764
g4972
ag4172
ag4170
ag4970
ag4173
atp6765
Rp6766
sg1224
g1
((lp6767
g692
ag2418
ag4816
ag2416
aS'joanne'
p6768
ag1224
ag3115
ag2421
ag3113
ag1808
ag1227
ag1220
ag2423
atp6769
Rp6770
sg2403
g1
((lp6771
S'kathy'
p6772
aS'katy'
p6773
aS'lena'
p6774
aS'trina'
p6775
ag2403
aS'kit'
p6776
aS'kittie'
p6777
aS'cathy'
p6778
aS'kay'
p6779
aS'cassie'
p6780
atp6781
Rp6782
sS'chauncey'
p6783
g1
((lp6784
S'chan'
p6785
ag6783
atp6786
Rp6787
sg5411
g1
((lp6788
g5411
ag5409
ag5412
atp6789
Rp6790
sg1245
g1
((lp6791
g1243
ag1245
atp6792
Rp6793
sS'arly'
p6794
g1
((lp6795
g6794
aS'arlene'
p6796
aS'lena'
p6797
atp6798
Rp6799
sg5959
g1
((lp6800
S'gertrude'
p6801
ag5957
ag5959
ag4011
atp6802
Rp6803
sg5817
g1
((lp6804
g555
ag5812
ag557
ag5816
ag5817
ag560
ag553
atp6805
Rp6806
sg6352
g1
((lp6807
S'lyddy'
p6808
ag6352
atp6809
Rp6810
sg6242
g1
((lp6811
g5984
ag5986
ag5987
ag6240
ag5988
ag6242
atp6812
Rp6813
sg4406
g1
((lp6814
g4404
ag4405
ag4406
ag4402
atp6815
Rp6816
sg3250
g1
((lp6817
S'polly'
p6818
aS'angelina'
p6819
ag4524
aS'paula'
p6820
ag3250
atp6821
Rp6822
sS'josiah'
p6823
g1
((lp6824
g6823
aS'jos'
p6825
atp6826
Rp6827
sg2512
g1
((lp6828
g2509
ag2511
ag2512
ag2513
atp6829
Rp6830
sg98
g1
((lp6831
g98
ag96
atp6832
Rp6833
sg3821
g1
((lp6834
g3820
ag3818
ag3821
atp6835
Rp6836
sg5579
g1
((lp6837
g5702
ag5579
ag5577
ag5580
atp6838
Rp6839
sg207
g1
((lp6840
g204
ag207
atp6841
Rp6842
sg1847
g1
((lp6843
g1847
ag1848
ag2243
ag741
ag1849
ag1845
ag1850
ag1851
ag743
ag747
ag742
ag748
ag2244
atp6844
Rp6845
sg6785
g1
((lp6846
g6785
ag6783
atp6847
Rp6848
sg5987
g1
((lp6849
g5987
ag5984
ag5989
ag5986
ag5988
atp6850
Rp6851
sg4444
g1
((lp6852
g4444
ag4442
atp6853
Rp6854
sS'chat'
p6855
g1
((lp6856
g6855
aS'charity'
p6857
atp6858
Rp6859
sg602
g1
((lp6860
g602
aS'flora'
p6861
aS'florence'
p6862
ag604
atp6863
Rp6864
sg2480
g1
((lp6865
g2480
ag2481
ag2482
ag2478
ag2483
atp6866
Rp6867
sg2689
g1
((lp6868
g2687
ag2689
atp6869
Rp6870
sg410
g1
((lp6871
g407
ag408
ag409
ag410
ag411
ag405
ag412
ag413
ag414
atp6872
Rp6873
sg2227
g1
((lp6874
g2344
ag2228
aS'nicodemus'
p6875
ag2227
ag2229
ag2225
atp6876
Rp6877
sg4745
g1
((lp6878
g4744
ag4745
ag4742
ag4746
atp6879
Rp6880
sg545
g1
((lp6881
g891
ag1380
ag533
ag197
ag536
ag2372
ag1382
ag539
ag1383
ag1384
ag542
ag529
ag544
ag545
ag4305
ag546
ag201
ag894
atp6882
Rp6883
sg1161
g1
((lp6884
S'nathan'
p6885
ag4071
ag1157
ag4066
ag1161
ag4069
ag4079
ag1162
atp6886
Rp6887
sg699
g1
((lp6888
g699
ag698
ag4376
ag4377
atp6889
Rp6890
sg3940
g1
((lp6891
g3940
ag3938
atp6892
Rp6893
sg109
g1
((lp6894
g108
ag2394
ag891
ag2399
ag1263
ag197
ag894
ag6379
ag2407
ag2408
ag194
ag2397
ag2398
ag115
ag116
ag196
ag2401
ag1385
ag6298
ag1264
ag121
aS'ellen'
p6895
ag2393
ag109
ag113
ag1381
ag195
ag106
ag1267
ag2391
ag1530
ag1265
ag2376
ag2406
ag6382
ag6301
ag6794
ag5637
ag1325
ag5639
ag2403
ag2400
ag6796
ag198
ag1261
ag2404
ag5635
ag1268
atp6896
Rp6897
sg4657
g1
((lp6898
g4655
ag4657
atp6899
Rp6900
sS'regina'
p6901
g1
((lp6902
S'reggie'
p6903
ag6901
aS'gina'
p6904
atp6905
Rp6906
sg1023
g1
((lp6907
g1018
ag1014
ag1023
atp6908
Rp6909
sg5912
g1
((lp6910
g5912
aS'jed'
p6911
atp6912
Rp6913
sg3842
g1
((lp6914
g3842
ag3840
ag3843
ag3844
atp6915
Rp6916
sg2124
g1
((lp6917
g2125
ag2126
ag2118
ag2119
ag2114
ag2121
ag2115
ag2116
ag4120
ag2122
ag2123
ag2124
atp6918
Rp6919
sS'ariadne'
p6920
g1
((lp6921
g6920
aS'arie'
p6922
atp6923
Rp6924
sg5986
g1
((lp6925
g5987
ag5984
ag5989
ag5986
ag5988
atp6926
Rp6927
sg428
g1
((lp6928
g3798
ag426
aS'gerald'
p6929
ag428
ag3799
aS'jereme'
p6930
ag430
atp6931
Rp6932
sg4102
g1
((lp6933
g4100
ag4101
ag5243
ag4102
atp6934
Rp6935
sS'kristel'
p6936
g1
((lp6937
g6936
aS'kris'
p6938
atp6939
Rp6940
sg2222
g1
((lp6941
g2222
ag2220
atp6942
Rp6943
sg1376
g1
((lp6944
g1376
ag1374
atp6945
Rp6946
sS'lafayette'
p6947
g1
((lp6948
S'laffie'
p6949
ag6947
aS'fate'
p6950
atp6951
Rp6952
sS'vicy'
p6953
g1
((lp6954
g6953
aS'levicy'
p6955
atp6956
Rp6957
sg2394
g1
((lp6958
g2393
ag2394
ag2395
ag2403
ag2397
ag2398
ag2399
ag2391
ag2400
ag2401
ag1530
ag2404
ag2406
ag2407
ag2408
atp6959
Rp6960
sg2353
g1
((lp6961
g2356
ag2353
ag2672
atp6962
Rp6963
sg6267
g1
((lp6964
S'morris'
p6965
aS'seymour'
p6966
ag6267
aS'see'
p6967
ag6265
atp6968
Rp6969
sS'steve'
p6970
g1
((lp6971
g6970
aS'stephen'
p6972
ag3824
aS'stephan'
p6973
aS'steph'
p6974
atp6975
Rp6976
sg1339
g1
((lp6977
g2833
ag1337
ag2825
ag2826
ag1339
atp6978
Rp6979
sg3935
g1
((lp6980
g3935
ag3933
atp6981
Rp6982
sg2499
g1
((lp6983
g3735
ag3736
ag2497
ag2499
ag3737
ag2502
atp6984
Rp6985
sg6955
g1
((lp6986
g6953
ag6955
atp6987
Rp6988
sg6090
g1
((lp6989
g1523
ag1524
ag1525
ag1526
ag1521
ag1527
ag1534
ag1529
ag1530
ag1531
aS'kay'
p6990
ag1533
ag6090
ag1535
atp6991
Rp6992
sg3655
g1
((lp6993
S'si'
p6994
ag3655
aS'sion'
p6995
atp6996
Rp6997
sg4405
g1
((lp6998
g4404
ag4405
ag4406
ag4402
atp6999
Rp7000
sg4004
g1
((lp7001
g4002
ag4003
ag4000
ag4004
atp7002
Rp7003
sg6922
g1
((lp7004
g1101
ag6920
ag6922
atp7005
Rp7006
sg1777
g1
((lp7007
g3477
ag1776
ag3475
ag1773
ag1777
atp7008
Rp7009
sg6019
g1
((lp7010
S'lil'
p7011
ag6020
ag1007
ag6019
ag6018
ag6021
atp7012
Rp7013
sg1708
g1
((lp7014
g2766
ag2762
ag1713
ag1708
ag1706
atp7015
Rp7016
sg6904
g1
((lp7017
g6903
ag6901
ag6904
atp7018
Rp7019
sg4455
g1
((lp7020
g4452
ag4454
ag4455
atp7021
Rp7022
sg2848
g1
((lp7023
g2848
ag2849
ag2846
atp7024
Rp7025
sg5307
g1
((lp7026
g5304
ag5306
ag5307
atp7027
Rp7028
sg6382
g1
((lp7029
g6381
ag6382
ag6379
atp7030
Rp7031
sg1882
g1
((lp7032
g1882
ag1883
ag1880
atp7033
Rp7034
sg5719
g1
((lp7035
g5718
ag5719
ag5716
atp7036
Rp7037
sS'eva'
p7038
g1
((lp7039
g7038
ag5638
ag5635
aS'eve'
p7040
atp7041
Rp7042
sg673
g1
((lp7043
g670
ag668
ag671
ag672
ag673
atp7044
Rp7045
sg7040
g1
((lp7046
g2741
ag5638
ag2172
ag2175
ag2459
ag7038
ag2739
ag7040
ag2461
ag2174
ag2738
ag2456
ag5635
ag2736
atp7047
Rp7048
sg1118
g1
((lp7049
g1116
ag1118
atp7050
Rp7051
sg332
g1
((lp7052
g314
ag312
ag332
ag331
ag324
ag327
ag334
ag317
ag315
ag333
ag328
ag318
ag325
ag335
ag321
ag322
atp7053
Rp7054
sg688
g1
((lp7055
g687
ag688
ag685
ag689
atp7056
Rp7057
sg1831
g1
((lp7058
g3216
ag656
ag1830
aS'bab'
p7059
ag1832
aS'barby'
p7060
ag1831
atp7061
Rp7062
sg578
g1
((lp7063
g576
ag574
ag577
ag578
atp7064
Rp7065
sg3422
g1
((lp7066
g3422
ag3420
atp7067
Rp7068
sg2752
g1
((lp7069
g2749
ag2751
ag2752
ag2753
ag2754
ag2755
ag2756
atp7070
Rp7071
sg540
g1
((lp7072
g541
ag677
ag549
ag547
ag540
atp7073
Rp7074
sg2421
g1
((lp7075
g2418
ag2416
ag2419
ag2420
ag2421
ag2423
atp7076
Rp7077
sg5064
g1
((lp7078
g5063
ag5756
ag5064
atp7079
Rp7080
sg565
g1
((lp7081
g563
ag565
atp7082
Rp7083
sg5291
g1
((lp7084
S'lisa'
p7085
ag5291
atp7086
Rp7087
sg2503
g1
((lp7088
g2501
ag2491
ag2495
ag2503
atp7089
Rp7090
sg2118
g1
((lp7091
g2125
ag2126
ag2118
ag2119
ag2114
ag5126
ag2121
ag2115
ag2116
ag4120
ag2122
ag2123
ag2124
ag6936
atp7092
Rp7093
sg1407
g1
((lp7094
g1399
ag1397
ag1401
ag1402
ag1403
ag1405
ag1406
ag1407
ag1408
ag1409
ag1410
ag1412
ag1413
ag1414
ag1415
ag1416
atp7095
Rp7096
sg5816
g1
((lp7097
g555
ag5812
ag557
ag5816
ag5817
ag560
ag553
atp7098
Rp7099
sg2228
g1
((lp7100
g2344
ag2228
aS'nickie'
p7101
ag2227
ag2229
ag2225
atp7102
Rp7103
sg1197
g1
((lp7104
g1193
ag1194
ag1195
ag1477
ag1478
ag1197
atp7105
Rp7106
sg125
g1
((lp7107
g119
aS'lil'
p7108
aS'lily'
p7109
ag3287
ag125
ag1007
ag114
aS'lilly'
p7110
ag6018
ag126
ag3289
atp7111
Rp7112
sg3246
g1
((lp7113
g3244
ag3245
ag3242
ag3246
atp7114
Rp7115
sg5661
g1
((lp7116
g5658
ag5660
ag5661
atp7117
Rp7118
sg5451
g1
((lp7119
g602
ag6861
ag5449
ag5451
atp7120
Rp7121
sS'kendrick'
p7122
g1
((lp7123
S'ken'
p7124
aS'kenny'
p7125
ag3868
aS'kenneth'
p7126
ag7122
atp7127
Rp7128
sg2660
g1
((lp7129
g2658
ag2660
atp7130
Rp7131
sg1142
g1
((lp7132
g1139
ag1141
ag1142
ag1143
ag1144
ag1145
atp7133
Rp7134
sg6387
g1
((lp7135
g1139
ag1141
ag1142
ag6387
ag6385
ag1144
atp7136
Rp7137
sg327
g1
((lp7138
g314
ag312
ag3664
ag332
ag331
ag324
ag327
ag334
ag317
ag315
ag333
ag328
ag318
ag325
ag335
ag321
ag322
atp7139
Rp7140
sg6573
g1
((lp7141
g6573
ag6284
ag6571
atp7142
Rp7143
sg5412
g1
((lp7144
g5411
ag5409
ag5412
atp7145
Rp7146
sg4178
g1
((lp7147
g4176
ag4178
atp7148
Rp7149
sg672
g1
((lp7150
g670
ag668
ag671
ag672
ag673
atp7151
Rp7152
sg3466
g1
((lp7153
g3465
ag3464
ag3466
ag3462
atp7154
Rp7155
sS'orphelia'
p7156
g1
((lp7157
g7156
aS'phelia'
p7158
atp7159
Rp7160
sg960
g1
((lp7161
g960
ag958
atp7162
Rp7163
sg5403
g1
((lp7164
g4
ag2117
ag2127
ag1670
ag5401
ag2112
ag1668
ag5403
ag2120
ag1671
atp7165
Rp7166
sg548
g1
((lp7167
g532
ag2837
ag548
ag534
atp7168
Rp7169
sg3595
g1
((lp7170
g3595
ag3593
atp7171
Rp7172
sg1775
g1
((lp7173
g1775
aS'cecilia'
p7174
atp7175
Rp7176
sg3526
g1
((lp7177
g3526
ag3527
ag3528
ag1151
ag3524
atp7178
Rp7179
sg251
g1
((lp7180
g4624
ag252
ag719
ag4625
ag727
ag4626
ag728
ag251
ag4627
atp7181
Rp7182
sg5047
g1
((lp7183
g5047
aS'ab'
p7184
ag5051
ag5049
atp7185
Rp7186
sg3528
g1
((lp7187
S'clarissa'
p7188
ag6326
aS'cissy'
p7189
ag3526
ag3528
ag3527
ag3524
atp7190
Rp7191
sg2115
g1
((lp7192
S'kris'
p7193
aS'kristy'
p7194
ag2115
aS'tina'
p7195
aS'christy'
p7196
aS'chris'
p7197
aS'crissy'
p7198
atp7199
Rp7200
sg5035
g1
((lp7201
g5034
ag5032
ag5035
atp7202
Rp7203
sg704
g1
((lp7204
g702
ag704
atp7205
Rp7206
sg3709
g1
((lp7207
g3709
ag3710
ag3707
ag3711
atp7208
Rp7209
sg1670
g1
((lp7210
g1670
ag1671
ag1672
ag1668
atp7211
Rp7212
sg5341
g1
((lp7213
g5340
ag5843
ag5341
ag5844
ag581
ag5845
atp7214
Rp7215
sg3806
g1
((lp7216
g3802
ag3804
ag3805
ag3806
ag3807
ag3808
atp7217
Rp7218
sg6234
g1
((lp7219
g6234
ag6232
atp7220
Rp7221
sg1350
g1
((lp7222
g1347
ag5056
ag1350
aS'nathan'
p7223
ag1346
atp7224
Rp7225
sg3465
g1
((lp7226
g5435
ag2493
ag2494
ag6199
ag3464
ag5436
ag3465
ag5437
ag2500
ag183
atp7227
Rp7228
sg4948
g1
((lp7229
g4948
ag4949
ag4946
ag4950
atp7230
Rp7231
sg2144
g1
((lp7232
g2142
ag2144
atp7233
Rp7234
sg1527
g1
((lp7235
S'kay'
p7236
aS'kaye'
p7237
ag1527
aS'kate'
p7238
atp7239
Rp7240
sg6143
g1
((lp7241
g6142
ag6140
ag6143
atp7242
Rp7243
sg1830
g1
((lp7244
g7060
ag1830
ag1831
ag1832
ag7059
atp7245
Rp7246
sg5561
g1
((lp7247
g5559
ag5561
atp7248
Rp7249
sg1662
g1
((lp7250
g1660
ag1662
atp7251
Rp7252
sg779
g1
((lp7253
g777
ag779
atp7254
Rp7255
sg2475
g1
((lp7256
g2475
ag2473
atp7257
Rp7258
sg6857
g1
((lp7259
g6855
ag6857
atp7260
Rp7261
sg6123
g1
((lp7262
g6123
aS'gabe'
p7263
aS'gabby'
p7264
atp7265
Rp7266
sg3644
g1
((lp7267
g3644
ag3642
atp7268
Rp7269
sg267
g1
((lp7270
g268
ag265
aS'shelly'
p7271
ag267
atp7272
Rp7273
sg335
g1
((lp7274
g314
ag312
ag332
ag331
ag324
ag327
ag334
ag317
ag315
ag333
ag328
ag318
ag325
ag335
ag321
ag322
atp7275
Rp7276
sg1824
g1
((lp7277
g1818
ag1820
ag1821
ag1822
ag1823
ag1824
atp7278
Rp7279
sS'kenny'
p7280
g1
((lp7281
S'kendall'
p7282
aS'ken'
p7283
ag7280
ag7126
ag1426
ag1424
ag3868
ag7122
ag1427
ag1428
atp7284
Rp7285
sg7101
g1
((lp7286
g7101
aS'nicholas'
p7287
atp7288
Rp7289
sS'etta'
p7290
g1
((lp7291
g2333
ag2335
aS'carthaette'
p7292
ag7290
aS'etty'
p7293
ag3981
ag3983
ag2340
ag2341
atp7294
Rp7295
sg7293
g1
((lp7296
g2333
ag2335
ag7292
ag7290
ag7293
ag2340
ag2341
atp7297
Rp7298
sg2856
g1
((lp7299
g2854
ag2855
ag2856
ag2857
ag2852
atp7300
Rp7301
sg546
g1
((lp7302
g533
ag535
ag536
ag539
ag542
ag529
ag544
ag545
ag546
atp7303
Rp7304
sg4565
g1
((lp7305
g4565
ag4563
atp7306
Rp7307
sg1098
g1
((lp7308
g1096
ag1097
ag1098
ag1094
atp7309
Rp7310
sg4315
g1
((lp7311
g4315
ag4316
ag4313
atp7312
Rp7313
sg6187
g1
((lp7314
g6185
ag2991
ag1271
ag1275
ag1274
ag2995
ag2993
ag2994
ag6187
atp7315
Rp7316
sg3883
g1
((lp7317
g3883
ag4677
ag3891
ag3884
ag3885
ag3887
ag3888
ag3889
ag3890
atp7318
Rp7319
sg4950
g1
((lp7320
g4948
ag4949
ag4946
ag4950
atp7321
Rp7322
sg3056
g1
((lp7323
S'rose'
p7324
aS'ann'
p7325
aS'rosie'
p7326
aS'roz'
p7327
ag3056
atp7328
Rp7329
sg2326
g1
((lp7330
g2326
ag5655
ag2327
atp7331
Rp7332
sg5718
g1
((lp7333
g5718
ag5719
ag5716
atp7334
Rp7335
sg1356
g1
((lp7336
g1356
ag1354
atp7337
Rp7338
sg2053
g1
((lp7339
g3647
ag2051
ag2053
atp7340
Rp7341
sg3538
g1
((lp7342
g3536
ag3539
ag2094
aS'sigfired'
p7343
ag2147
ag3538
atp7344
Rp7345
sg1173
g1
((lp7346
g1178
ag1512
ag1173
ag1171
ag1513
atp7347
Rp7348
sg7158
g1
((lp7349
g7156
ag7158
atp7350
Rp7351
sg1764
g1
((lp7352
g1764
ag1762
ag1765
atp7353
Rp7354
sS'fran'
p7355
g1
((lp7356
g3883
ag4677
ag3891
ag3884
ag7355
ag3887
ag5218
ag3888
aS'frannie'
p7357
aS'franklin'
p7358
ag4678
ag4679
ag3890
atp7359
Rp7360
sg739
g1
((lp7361
g739
ag3019
ag6099
aS'ron'
p7362
ag749
atp7363
Rp7364
sg2829
g1
((lp7365
g5234
ag1236
ag1233
ag2581
ag2829
ag1239
ag1240
ag2824
ag2592
ag2820
ag1237
atp7366
Rp7367
sS'reggie'
p7368
g1
((lp7369
g6901
ag5927
ag6904
ag6554
ag5931
ag7368
aS'reg'
p7370
atp7371
Rp7372
sg615
g1
((lp7373
g615
ag616
ag613
ag617
ag618
ag619
atp7374
Rp7375
sg1016
g1
((lp7376
g2352
ag2357
ag2355
ag1020
ag1016
atp7377
Rp7378
sg6526
g1
((lp7379
S'obie'
p7380
ag6526
atp7381
Rp7382
sg5034
g1
((lp7383
g5034
ag5032
ag5035
atp7384
Rp7385
sg2109
g1
((lp7386
g2109
ag2107
atp7387
Rp7388
sg3527
g1
((lp7389
g3526
ag3527
ag3528
ag3524
atp7390
Rp7391
sg3951
g1
((lp7392
g3949
ag3951
ag3952
ag3953
atp7393
Rp7394
sg75
g1
((lp7395
g75
ag76
ag73
ag6390
atp7396
Rp7397
sg2128
g1
((lp7398
g2128
aS'tina'
p7399
atp7400
Rp7401
sg407
g1
((lp7402
g407
ag408
ag409
ag410
ag405
ag412
ag413
atp7403
Rp7404
sg842
g1
((lp7405
g3684
ag2354
ag2350
ag2360
ag842
ag840
ag2361
atp7406
Rp7407
sg886
g1
((lp7408
g874
ag2283
ag878
ag879
ag2284
ag881
ag2285
ag882
aS'dora'
p7409
ag884
ag400
ag885
ag886
atp7410
Rp7411
sg7188
g1
((lp7412
g7188
ag7189
aS'clara'
p7413
atp7414
Rp7415
sg5127
g1
((lp7416
S'chris'
p7417
ag5127
atp7418
Rp7419
sS'philinda'
p7420
g1
((lp7421
S'linda'
p7422
aS'lynn'
p7423
aS'lindy'
p7424
ag7420
atp7425
Rp7426
sg6768
g1
((lp7427
g6768
aS'jo'
p7428
atp7429
Rp7430
sg3115
g1
((lp7431
g4816
ag3113
ag3111
ag3114
ag3115
atp7432
Rp7433
sg1275
g1
((lp7434
g1271
ag1273
ag1274
ag1275
ag1276
atp7435
Rp7436
sg4962
g1
((lp7437
g1016
ag4961
ag1506
ag5278
ag2064
ag1504
ag4962
ag1508
ag1020
ag1017
ag1022
atp7438
Rp7439
sg2849
g1
((lp7440
g2848
ag2849
ag2846
atp7441
Rp7442
sg3113
g1
((lp7443
g2792
ag4816
ag2416
ag2418
ag3111
ag3115
ag2421
ag1225
ag3113
aS'joseph'
p7444
aS'joey'
p7445
ag3114
ag3106
aS'joe'
p7446
atp7447
Rp7448
sg1001
g1
((lp7449
g5423
ag5421
ag2711
ag5425
aS'al'
p7450
ag5424
ag999
ag1000
ag1001
atp7451
Rp7452
sS'wen'
p7453
g1
((lp7454
g7453
aS'wendy'
p7455
atp7456
Rp7457
sg2928
g1
((lp7458
g2931
ag2923
ag2932
ag2928
ag2930
ag2927
ag2921
atp7459
Rp7460
sg340
g1
((lp7461
g340
ag338
atp7462
Rp7463
sg2399
g1
((lp7464
g2393
ag2394
ag2395
ag2397
ag2399
ag2391
aS'cathleen'
p7465
ag2401
ag2078
ag2404
ag2406
ag2075
ag2408
atp7466
Rp7467
sg808
g1
((lp7468
g807
ag808
ag805
ag809
ag810
atp7469
Rp7470
sg4101
g1
((lp7471
g4100
ag4101
ag5243
ag4102
atp7472
Rp7473
sg1435
g1
((lp7474
g1435
aS'silla'
p7475
atp7476
Rp7477
sg747
g1
((lp7478
g741
ag2243
ag742
ag744
ag743
ag747
ag748
ag2244
atp7479
Rp7480
sg5353
g1
((lp7481
g5351
ag5353
atp7482
Rp7483
sg2159
g1
((lp7484
g5644
ag2159
ag2160
aS'david'
p7485
atp7486
Rp7487
sg4850
g1
((lp7488
g4850
aS'willie'
p7489
atp7490
Rp7491
sg238
g1
((lp7492
g238
ag239
ag236
ag240
ag241
atp7493
Rp7494
sg924
g1
((lp7495
g924
ag925
ag922
ag926
atp7496
Rp7497
sg6796
g1
((lp7498
g6794
ag6796
ag6797
atp7499
Rp7500
sg4268
g1
((lp7501
g4267
ag4268
aS'dick'
p7502
atp7503
Rp7504
sg769
g1
((lp7505
g766
ag764
ag291
ag287
ag292
ag768
ag295
ag769
ag297
ag298
ag299
ag300
ag301
atp7506
Rp7507
sg5171
g1
((lp7508
g937
ag939
ag6361
ag5172
ag5169
ag791
ag5171
atp7509
Rp7510
sg6625
g1
((lp7511
g6625
ag6623
atp7512
Rp7513
sg3213
g1
((lp7514
g3655
ag3212
ag3210
ag3213
atp7515
Rp7516
sg1000
g1
((lp7517
g58
aS'alex'
p7518
ag995
ag7450
ag4160
ag998
ag5672
ag2926
ag1000
ag5066
atp7519
Rp7520
sg393
g1
((lp7521
g393
ag391
ag394
ag399
atp7522
Rp7523
sg571
g1
((lp7524
g571
ag2903
ag2028
ag2904
ag568
ag570
ag2030
ag2031
atp7525
Rp7526
sg1727
g1
((lp7527
g981
ag1723
ag1724
ag1725
ag986
ag1726
ag985
ag1727
ag984
ag1729
ag1721
ag988
ag1731
ag1733
ag1734
ag983
atp7528
Rp7529
sg2626
g1
((lp7530
g2625
ag2626
ag2623
atp7531
Rp7532
sg3551
g1
((lp7533
g6656
ag6657
ag3549
ag6658
ag3551
atp7534
Rp7535
sg420
g1
((lp7536
g417
ag419
ag420
ag421
atp7537
Rp7538
sg3158
g1
((lp7539
g3158
aS'minnie'
p7540
atp7541
Rp7542
sg7370
g1
((lp7543
g7368
ag5927
ag5930
ag7370
ag5931
atp7544
Rp7545
sg618
g1
((lp7546
g615
ag4489
ag616
ag5368
ag613
ag617
ag4490
ag618
ag2715
ag619
atp7547
Rp7548
sg6142
g1
((lp7549
g6142
ag6140
ag6143
atp7550
Rp7551
sg2532
g1
((lp7552
g2532
ag622
ag2530
ag2534
atp7553
Rp7554
sg5214
g1
((lp7555
S'jessie'
p7556
ag5214
atp7557
Rp7558
sg4678
g1
((lp7559
g4872
ag4871
ag3292
ag4678
ag6219
ag4679
atp7560
Rp7561
sg1405
g1
((lp7562
g1399
ag1397
ag1401
ag1402
ag1403
ag1405
ag1406
ag1407
ag1408
ag1409
ag1410
ag1412
ag1413
ag1414
ag1415
ag1416
atp7563
Rp7564
sg482
g1
((lp7565
g480
ag482
ag484
atp7566
Rp7567
sg4215
g1
((lp7568
g4214
ag4215
ag4212
atp7569
Rp7570
sg1786
g1
((lp7571
S'vannie'
p7572
ag1786
atp7573
Rp7574
sg5239
g1
((lp7575
g5237
ag5239
atp7576
Rp7577
sg3408
g1
((lp7578
g3407
aS'valerie'
p7579
ag3408
ag3409
ag5882
ag4558
atp7580
Rp7581
sg6305
g1
((lp7582
g6305
aS'lee'
p7583
atp7584
Rp7585
sg6564
g1
((lp7586
g6562
ag6564
atp7587
Rp7588
sg2161
g1
((lp7589
g2157
ag2159
ag5642
ag2161
atp7590
Rp7591
sS'adrian'
p7592
g1
((lp7593
g6586
aS'rian'
p7594
ag7592
atp7595
Rp7596
sg6722
g1
((lp7597
g6720
ag6722
atp7598
Rp7599
sg15
g1
((lp7600
g14
ag15
ag16
ag12
ag3166
atp7601
Rp7602
sg7282
g1
((lp7603
g7282
ag7283
ag7280
atp7604
Rp7605
sg532
g1
((lp7606
g532
ag2837
ag548
ag534
atp7607
Rp7608
sg550
g1
((lp7609
g4304
ag538
ag550
ag537
atp7610
Rp7611
sg2903
g1
((lp7612
S'thys'
p7613
aS'matt'
p7614
aS'thias'
p7615
ag2903
atp7616
Rp7617
sg5891
g1
((lp7618
g5891
ag5889
atp7619
Rp7620
sg3002
g1
((lp7621
g2999
ag3001
ag3002
atp7622
Rp7623
sg748
g1
((lp7624
g741
ag2243
ag742
ag744
ag743
ag747
ag748
ag2244
atp7625
Rp7626
sg5931
g1
((lp7627
g5933
ag5927
ag5930
ag5934
ag5931
atp7628
Rp7629
sg3859
g1
((lp7630
g3859
aS'shay'
p7631
aS'sha'
p7632
atp7633
Rp7634
sg6973
g1
((lp7635
g6970
ag6973
atp7636
Rp7637
sg7357
g1
((lp7638
g3883
ag4677
ag3891
ag3884
ag7355
ag3887
ag5218
ag3888
ag7357
ag3890
atp7639
Rp7640
sg687
g1
((lp7641
g3745
ag4068
ag4066
ag688
ag685
ag4069
ag4070
ag689
ag687
ag4072
ag5140
atp7642
Rp7643
sS'abbie'
p7644
g1
((lp7645
g7184
ag5047
aS'abigail'
p7646
ag7644
ag5051
aS'abby'
p7647
atp7648
Rp7649
sS'jule'
p7650
g1
((lp7651
S'julian'
p7652
aS'julie'
p7653
aS'julias'
p7654
aS'julia'
p7655
ag7650
atp7656
Rp7657
sg6966
g1
((lp7658
g6967
aS'morey'
p7659
ag6966
atp7660
Rp7661
sg323
g1
((lp7662
g488
ag320
ag489
ag490
ag323
ag330
ag316
ag326
ag491
ag492
ag319
ag493
ag494
ag329
atp7663
Rp7664
sg326
g1
((lp7665
g488
ag320
ag489
ag490
ag323
ag330
ag316
ag326
ag491
ag492
ag319
ag493
ag494
ag329
atp7666
Rp7667
sg4123
g1
((lp7668
S'tony'
p7669
ag4123
aS'ann'
p7670
aS'netta'
p7671
atp7672
Rp7673
sg1236
g1
((lp7674
g5723
ag1236
ag5724
ag5725
ag1240
ag1237
atp7675
Rp7676
sg4131
g1
((lp7677
g4129
ag4130
ag4127
ag4131
ag4132
ag4133
atp7678
Rp7679
sS'bea'
p7680
g1
((lp7681
S'beatrice'
p7682
ag7680
ag2918
ag5194
ag2913
ag2916
atp7683
Rp7684
sg6967
g1
((lp7685
g6967
ag7659
ag6966
atp7686
Rp7687
sg1018
g1
((lp7688
g1018
ag1014
ag1023
atp7689
Rp7690
sg3152
g1
((lp7691
g3154
ag3152
ag3151
ag3148
ag3153
atp7692
Rp7693
sg387
g1
((lp7694
g385
aS'beck'
p7695
aS'becca'
p7696
ag387
ag4758
atp7697
Rp7698
sg4797
g1
((lp7699
g4795
ag4797
atp7700
Rp7701
sg7652
g1
((lp7702
g7652
ag7650
atp7703
Rp7704
sg114
g1
((lp7705
g119
ag3287
ag125
ag114
ag126
ag3289
atp7706
Rp7707
sg1239
g1
((lp7708
g1235
ag1239
ag1233
ag1238
atp7709
Rp7710
sg7654
g1
((lp7711
g7654
aS'jule'
p7712
atp7713
Rp7714
sg1683
g1
((lp7715
g2962
aS'teresa'
p7716
aS'theresa'
p7717
ag2964
ag1683
ag2966
ag2967
ag2968
ag3228
atp7718
Rp7719
sg5051
g1
((lp7720
g5047
ag7184
ag5051
ag5049
atp7721
Rp7722
sg5065
g1
((lp7723
S'al'
p7724
ag5065
atp7725
Rp7726
sg1564
g1
((lp7727
g1564
ag4590
ag1571
ag4591
atp7728
Rp7729
sS'lindy'
p7730
g1
((lp7731
S'lynn'
p7732
ag355
ag3428
ag7730
ag363
ag2385
ag7420
ag6592
aS'linda'
p7733
aS'celinda'
p7734
atp7735
Rp7736
sg2807
g1
((lp7737
g2801
ag2802
ag2803
ag2804
ag2806
ag2799
ag2807
atp7738
Rp7739
sg122
g1
((lp7740
g112
ag122
ag110
ag4966
ag4967
atp7741
Rp7742
sg4994
g1
((lp7743
g4993
ag4994
ag4995
ag4991
atp7744
Rp7745
sg5566
g1
((lp7746
g3802
ag2058
ag3952
ag3804
ag5566
ag1933
ag3949
ag2056
ag1655
ag358
ag4957
ag3951
ag361
ag362
ag3806
ag5564
ag366
ag3807
ag2059
ag3808
atp7747
Rp7748
sg2119
g1
((lp7749
g2125
ag2126
ag2118
ag2119
ag2114
ag2121
ag2115
ag2116
ag4120
ag2122
ag2123
ag2124
atp7750
Rp7751
sg3691
g1
((lp7752
g3689
ag3691
ag3692
atp7753
Rp7754
sg1840
g1
((lp7755
g1837
ag1838
ag1839
ag1840
ag1841
ag1842
ag1835
atp7756
Rp7757
sg5204
g1
((lp7758
S'gum'
p7759
aS'monty'
p7760
ag5204
atp7761
Rp7762
sg1559
g1
((lp7763
g1557
ag1558
ag1555
ag1559
atp7764
Rp7765
sg2294
g1
((lp7766
g7730
ag355
ag818
ag813
ag7732
aS'belle'
p7767
ag817
ag7420
ag816
ag2296
ag363
ag2294
ag6592
ag164
ag7734
atp7768
Rp7769
sg3589
g1
((lp7770
g3586
ag3584
ag3587
ag3588
ag3589
ag3590
atp7771
Rp7772
sg6020
g1
((lp7773
g7011
ag6018
ag6019
ag6020
ag6021
atp7774
Rp7775
sg144
g1
((lp7776
g142
ag144
ag146
ag147
atp7777
Rp7778
sg7292
g1
((lp7779
g7290
ag7292
ag7293
atp7780
Rp7781
sS'hassie'
p7782
g1
((lp7783
S'haseltine'
p7784
ag7782
atp7785
Rp7786
sg4003
g1
((lp7787
g4003
ag4000
ag4004
atp7788
Rp7789
sg754
g1
((lp7790
g754
ag752
ag755
atp7791
Rp7792
sg6949
g1
((lp7793
g6949
ag6947
ag6950
atp7794
Rp7795
sg525
g1
((lp7796
g523
ag525
ag526
atp7797
Rp7798
sg3878
g1
((lp7799
g3877
ag3878
ag3875
atp7800
Rp7801
sg2897
g1
((lp7802
S'frederick'
p7803
ag2897
atp7804
Rp7805
sS'bree'
p7806
g1
((lp7807
g7806
aS'aubrey'
p7808
atp7809
Rp7810
sg3347
g1
((lp7811
g3345
ag3347
ag3348
atp7812
Rp7813
sg555
g1
((lp7814
g555
ag556
ag557
ag558
ag559
ag560
ag553
atp7815
Rp7816
sg5104
g1
((lp7817
g5102
ag5104
atp7818
Rp7819
sg2439
g1
((lp7820
g2437
ag2439
ag2440
ag2441
ag2442
atp7821
Rp7822
sg1489
g1
((lp7823
g1492
ag1495
ag1489
ag2001
ag1496
atp7824
Rp7825
sg1434
g1
((lp7826
g1434
ag1432
atp7827
Rp7828
sg5495
g1
((lp7829
g5493
ag5495
atp7830
Rp7831
sg1815
g1
((lp7832
g1813
ag1815
atp7833
Rp7834
sg512
g1
((lp7835
g512
ag510
ag513
ag514
ag515
atp7836
Rp7837
sg6473
g1
((lp7838
g6471
ag6473
atp7839
Rp7840
sg1193
g1
((lp7841
g1193
ag1194
ag1195
ag1477
ag1478
ag1197
atp7842
Rp7843
sg2072
g1
((lp7844
g2067
ag2072
atp7845
Rp7846
sg733
g1
((lp7847
g733
ag731
ag734
atp7848
Rp7849
sg3759
g1
((lp7850
g3756
ag3758
ag3759
ag3760
atp7851
Rp7852
sg4928
g1
((lp7853
S'casper'
p7854
aS'jasper'
p7855
ag4928
atp7856
Rp7857
sg768
g1
((lp7858
g766
ag764
ag291
ag287
ag292
ag768
ag295
ag769
ag297
ag298
ag299
ag300
ag301
atp7859
Rp7860
sg576
g1
((lp7861
g576
ag574
ag577
ag578
atp7862
Rp7863
sg1582
g1
((lp7864
g1581
ag1582
ag1578
ag1583
atp7865
Rp7866
sg847
g1
((lp7867
g847
ag850
ag2257
atp7868
Rp7869
sg3654
g1
((lp7870
g3654
ag3652
atp7871
Rp7872
sg2463
g1
((lp7873
S'jane'
p7874
aS'jean'
p7875
ag2463
ag2809
atp7876
Rp7877
sg7647
g1
((lp7878
g3776
ag3780
ag7647
ag7644
ag7646
atp7879
Rp7880
sg2139
g1
((lp7881
g2138
ag2136
ag2139
atp7882
Rp7883
sg2138
g1
((lp7884
g2138
ag2136
ag2139
atp7885
Rp7886
sg2229
g1
((lp7887
g2225
ag2227
ag2228
ag2229
atp7888
Rp7889
sg1411
g1
((lp7890
g1411
ag1400
ag1447
ag1404
atp7891
Rp7892
sg6396
g1
((lp7893
g6396
aS'sammy'
p7894
aS'sam'
p7895
ag6397
atp7896
Rp7897
sg1183
g1
((lp7898
g1178
ag722
ag3549
ag1172
ag1171
ag1170
ag1182
ag1167
ag1165
ag1183
ag723
ag1177
ag3201
ag3551
ag1173
ag3197
ag3202
ag3200
atp7899
Rp7900
sg1495
g1
((lp7901
g1492
ag1495
ag1489
ag2001
ag1496
atp7902
Rp7903
sg5156
g1
((lp7904
g5154
ag5156
atp7905
Rp7906
sg4499
g1
((lp7907
g4498
ag4499
ag5774
atp7908
Rp7909
sg1592
g1
((lp7910
g4288
ag1589
ag1591
ag1586
ag1592
atp7911
Rp7912
sg3483
g1
((lp7913
g7282
ag3483
ag7280
ag3481
ag3868
ag7122
ag1097
ag1098
ag1094
atp7914
Rp7915
sg2792
g1
((lp7916
S'joshua'
p7917
ag6823
ag2792
aS'josh'
p7918
ag7444
ag7446
ag2790
ag7445
atp7919
Rp7920
sg3317
g1
((lp7921
g2458
ag3315
ag3317
ag3313
ag2267
ag2269
ag3752
ag2462
atp7922
Rp7923
sS'joy'
p7924
g1
((lp7925
g7924
aS'joyce'
p7926
atp7927
Rp7928
sg4608
g1
((lp7929
g4605
ag4607
ag4608
atp7930
Rp7931
sg4267
g1
((lp7932
g4267
ag4268
ag7502
atp7933
Rp7934
sg2791
g1
((lp7935
g2790
ag2788
ag2791
ag2792
ag2793
atp7936
Rp7937
sg2296
g1
((lp7938
g7767
ag2296
ag2294
atp7939
Rp7940
sg2585
g1
((lp7941
g2594
ag2679
ag2586
ag2584
ag2590
ag2585
ag2587
ag2588
ag2591
atp7942
Rp7943
sg1351
g1
((lp7944
g4076
ag1345
ag1351
atp7945
Rp7946
sg3586
g1
((lp7947
g3586
ag3584
ag3587
ag3588
aS'martin'
p7948
ag3589
ag3590
atp7949
Rp7950
sg355
g1
((lp7951
g353
ag355
ag357
ag363
ag6592
ag360
atp7952
Rp7953
sg4852
g1
((lp7954
g4849
ag4852
aS'bill'
p7955
aS'fred'
p7956
ag6465
aS'willie'
p7957
atp7958
Rp7959
sg2831
g1
((lp7960
g2946
ag2821
ag2831
atp7961
Rp7962
sg1369
g1
((lp7963
g1366
ag1369
ag1370
ag1371
ag1368
atp7964
Rp7965
sg333
g1
((lp7966
g314
ag312
ag332
ag331
ag324
ag327
ag334
ag317
ag315
ag333
ag328
ag325
ag335
ag321
ag322
atp7967
Rp7968
sg2910
g1
((lp7969
g3133
ag2907
ag5689
ag2909
ag5687
ag346
ag3134
ag2910
atp7970
Rp7971
sg3370
g1
((lp7972
g3368
ag3370
ag3371
ag3372
atp7973
Rp7974
sg4257
g1
((lp7975
g4255
ag4257
atp7976
Rp7977
sg3514
g1
((lp7978
g3514
ag3512
atp7979
Rp7980
sg2101
g1
((lp7981
g3565
ag2752
ag3566
ag2751
ag3567
ag2749
ag2099
ag2101
ag2755
ag3563
ag2753
ag2756
ag3569
atp7982
Rp7983
sg2594
g1
((lp7984
g2594
ag2679
ag2586
ag2584
ag2585
ag2587
ag2588
ag2591
atp7985
Rp7986
sg3983
g1
((lp7987
g6679
ag3981
ag3983
ag3984
ag3985
atp7988
Rp7989
sg1713
g1
((lp7990
g2766
ag2762
ag1713
ag1708
ag1706
atp7991
Rp7992
sg4849
g1
((lp7993
g4849
ag4882
ag4851
ag4852
ag4853
ag4857
aS'bill'
p7994
aS'william'
p7995
aS'billy'
p7996
ag7957
ag4827
atp7997
Rp7998
sS'alphus'
p7999
g1
((lp8000
g7999
aS'alphinias'
p8001
atp8002
Rp8003
sg1383
g1
((lp8004
g891
ag193
ag550
ag197
ag194
ag1382
ag1383
ag1384
ag4304
ag198
ag1387
ag1948
ag4305
ag201
atp8005
Rp8006
sg1468
g1
((lp8007
g1466
ag1468
atp8008
Rp8009
sg3820
g1
((lp8010
g3820
ag3818
ag3821
atp8011
Rp8012
sg1534
g1
((lp8013
g1532
ag1521
ag1534
ag1528
atp8014
Rp8015
sg3569
g1
((lp8016
g3565
ag3566
ag3567
ag3568
ag3563
ag3569
atp8017
Rp8018
sg671
g1
((lp8019
g670
ag668
ag671
ag672
ag673
atp8020
Rp8021
sg7682
g1
((lp8022
g2913
ag7680
ag7682
ag2916
ag2918
atp8023
Rp8024
sg7808
g1
((lp8025
g7806
ag7808
atp8026
Rp8027
sg3815
g1
((lp8028
g3815
aS'eddie'
p8029
aS'eddy'
p8030
aS'ed'
p8031
atp8032
Rp8033
sg6131
g1
((lp8034
g5435
ag6129
ag6131
ag2496
ag2498
ag2500
atp8035
Rp8036
sg4278
g1
((lp8037
g4275
ag4277
ag4278
atp8038
Rp8039
sg1821
g1
((lp8040
g1818
ag1820
ag1821
ag1822
ag1823
ag1824
atp8041
Rp8042
sg7343
g1
((lp8043
g7343
aS'sid'
p8044
atp8045
Rp8046
sg4746
g1
((lp8047
g4744
ag4745
ag4742
ag4746
atp8048
Rp8049
sg533
g1
((lp8050
g533
ag536
ag539
ag542
ag529
ag544
ag545
ag546
atp8051
Rp8052
sg2495
g1
((lp8053
g2491
ag2495
ag5380
ag2499
ag2501
ag2502
ag2503
atp8054
Rp8055
sg2127
g1
((lp8056
g2117
ag2130
ag2120
ag2112
ag2127
atp8057
Rp8058
sg2833
g1
((lp8059
g4881
aS'bert'
p8060
ag4851
ag7995
ag1179
ag4853
ag4857
ag7955
ag134
ag2833
ag7996
ag130
aS'wilber'
p8061
ag133
atp8062
Rp8063
sg647
g1
((lp8064
g3091
ag646
ag647
ag648
ag644
atp8065
Rp8066
sg1740
g1
((lp8067
g1740
ag1741
ag1742
ag1743
ag1744
ag1738
atp8068
Rp8069
sg2308
g1
((lp8070
g2307
ag2310
ag2308
ag6738
ag6739
atp8071
Rp8072
sg2458
g1
((lp8073
g2458
ag3747
ag3752
ag2464
ag2462
atp8074
Rp8075
sg2174
g1
((lp8076
g2174
ag2172
ag2175
ag2176
atp8077
Rp8078
sg1384
g1
((lp8079
g1384
aS'helen'
p8080
aS'ellen'
p8081
aS'nellie'
p8082
atp8083
Rp8084
sg6018
g1
((lp8085
g7108
ag7109
ag7110
ag6018
ag6021
atp8086
Rp8087
sS'mally'
p8088
g1
((lp8089
S'malachi'
p8090
ag8088
atp8091
Rp8092
sg5212
g1
((lp8093
S'jessie'
p8094
ag5213
ag5212
atp8095
Rp8096
sg1734
g1
((lp8097
g1729
ag5165
ag1734
ag5166
atp8098
Rp8099
sg570
g1
((lp8100
g571
ag2028
ag2904
ag568
ag570
ag2030
ag2031
atp8101
Rp8102
sg1961
g1
((lp8103
g1960
ag1958
ag1961
atp8104
Rp8105
sg1557
g1
((lp8106
g1557
ag1558
ag1555
ag1559
atp8107
Rp8108
sg6580
g1
((lp8109
g6580
aS'sam'
p8110
atp8111
Rp8112
sg1694
g1
((lp8113
g1694
ag4195
ag1695
atp8114
Rp8115
sg4528
g1
((lp8116
S'polly'
p8117
ag4527
ag4526
ag4528
ag4525
atp8118
Rp8119
sg5423
g1
((lp8120
g5423
ag5424
ag5421
ag5425
ag5426
atp8121
Rp8122
sg1518
g1
((lp8123
g1518
ag1516
atp8124
Rp8125
sg3909
g1
((lp8126
g3907
ag3909
atp8127
Rp8128
sg547
g1
((lp8129
g541
ag677
ag549
ag547
ag540
atp8130
Rp8131
sg2429
g1
((lp8132
g2428
ag2426
ag2429
atp8133
Rp8134
sg4728
g1
((lp8135
g4727
ag4728
ag4725
atp8136
Rp8137
sg4876
g1
((lp8138
g4876
aS'dicey'
p8139
atp8140
Rp8141
sg7579
g1
((lp8142
g7579
aS'val'
p8143
atp8144
Rp8145
sg273
g1
((lp8146
g271
ag273
ag274
ag275
ag276
atp8147
Rp8148
sg2923
g1
((lp8149
g2045
ag2931
ag2923
ag2924
ag2932
ag2048
ag2043
ag2928
ag2930
ag2927
ag2921
ag2046
atp8150
Rp8151
sg1785
g1
((lp8152
g1785
ag1783
ag1787
atp8153
Rp8154
sg2619
g1
((lp8155
g2619
ag2617
ag2620
atp8156
Rp8157
sg7646
g1
((lp8158
g3776
ag3780
ag7647
ag7644
ag7646
atp8159
Rp8160
sg4929
g1
((lp8161
g4928
ag4926
ag4929
atp8162
Rp8163
sg4527
g1
((lp8164
g8117
ag4527
ag4528
ag4525
atp8165
Rp8166
sg76
g1
((lp8167
g75
ag76
ag73
atp8168
Rp8169
sg1217
g1
((lp8170
g1209
ag3072
ag1212
ag1213
ag3073
ag3074
ag3075
ag1217
atp8171
Rp8172
sg1757
g1
((lp8173
g1757
ag1754
ag1758
atp8174
Rp8175
sg939
g1
((lp8176
g937
ag791
ag6361
ag939
ag940
atp8177
Rp8178
sg878
g1
((lp8179
g4881
ag874
aS'willie'
p8180
ag7995
ag878
ag879
ag2284
ag4857
ag7994
ag2285
ag882
ag4882
ag884
ag7996
ag885
ag886
atp8181
Rp8182
sg6875
g1
((lp8183
S'nick'
p8184
ag6875
atp8185
Rp8186
sg4618
g1
((lp8187
g4616
ag4614
ag4617
ag4618
ag4619
aS'trisha'
p8188
ag6193
atp8189
Rp8190
sg3760
g1
((lp8191
g3758
ag6006
ag3760
ag1170
ag3759
ag725
ag3756
ag721
atp8192
Rp8193
sg5172
g1
((lp8194
g5171
ag5172
ag5169
atp8195
Rp8196
sg4011
g1
((lp8197
g6801
ag4009
aS'gertie'
p8198
ag4011
atp8199
Rp8200
sg1750
g1
((lp8201
g1749
ag1750
ag1747
ag1751
atp8202
Rp8203
sg4857
g1
((lp8204
g4881
ag4882
ag4853
ag4857
ag7994
ag7995
ag7996
ag8180
atp8205
Rp8206
sg275
g1
((lp8207
g273
ag6885
ag4071
ag276
ag4066
ag271
ag4077
ag274
ag4069
ag275
atp8208
Rp8209
sg6397
g1
((lp8210
g6396
ag7894
ag7895
ag6397
atp8211
Rp8212
sg6950
g1
((lp8213
g6949
ag6947
ag6950
atp8214
Rp8215
sg3151
g1
((lp8216
g3154
ag3152
ag3151
ag3148
ag3153
atp8217
Rp8218
sg1751
g1
((lp8219
g1749
ag1750
ag1747
ag1751
atp8220
Rp8221
sg6495
g1
((lp8222
g6495
ag6492
atp8223
Rp8224
sg5306
g1
((lp8225
g5304
ag5306
ag5307
atp8226
Rp8227
sg4223
g1
((lp8228
g4223
ag4221
atp8229
Rp8230
sg3804
g1
((lp8231
g3802
ag3804
ag3805
aS'mel'
p8232
ag3806
aS'millie'
p8233
ag3807
ag3808
atp8234
Rp8235
sg4601
g1
((lp8236
g4599
ag4601
ag4602
atp8237
Rp8238
sg2295
g1
((lp8239
g875
ag877
ag2291
ag872
ag2293
ag1756
ag5594
ag2295
atp8240
Rp8241
sg7948
g1
((lp8242
S'marty'
p8243
ag7948
atp8244
Rp8245
sg2442
g1
((lp8246
g4298
ag2437
ag2439
ag2440
ag2441
ag2442
ag4804
atp8247
Rp8248
sg400
g1
((lp8249
g7409
ag400
ag401
atp8250
Rp8251
sg1999
g1
((lp8252
S'conny'
p8253
ag1999
aS'con'
p8254
atp8255
Rp8256
sg3807
g1
((lp8257
g3802
ag3804
ag3805
ag8232
ag3806
ag8233
ag3807
ag3808
atp8258
Rp8259
sg4524
g1
((lp8260
S'polly'
p8261
ag4524
aS'lina'
p8262
atp8263
Rp8264
sg4525
g1
((lp8265
g8117
ag4527
ag4528
ag4525
atp8266
Rp8267
sg265
g1
((lp8268
g268
ag265
ag7271
ag267
atp8269
Rp8270
sg6441
g1
((lp8271
g4123
ag309
aS'clifton'
p8272
ag7271
ag6439
ag267
ag6441
ag308
aS'cliff'
p8273
ag265
ag305
atp8274
Rp8275
sg743
g1
((lp8276
g741
ag2243
ag742
ag744
ag743
ag747
ag748
ag2244
atp8277
Rp8278
sg212
g1
((lp8279
g807
ag2195
ag210
ag2196
aS'sheryl'
p8280
ag212
atp8281
Rp8282
sg2217
g1
((lp8283
g2215
ag2216
ag2217
ag2213
atp8284
Rp8285
sg1993
g1
((lp8286
g1894
ag1990
ag1991
ag1992
ag1987
ag1993
ag1994
atp8287
Rp8288
sg874
g1
((lp8289
g874
ag2283
ag878
ag879
ag2284
ag881
ag2285
ag882
ag884
ag885
ag886
atp8290
Rp8291
sg6430
g1
((lp8292
g6430
aS'kathy'
p8293
atp8294
Rp8295
sg1184
g1
((lp8296
g4881
ag4882
ag4853
ag1169
ag1181
ag4855
ag1175
ag1184
ag1180
ag4857
atp8297
Rp8298
sg710
g1
((lp8299
g2822
ag709
ag710
atp8300
Rp8301
sg6965
g1
((lp8302
g6965
aS'morey'
p8303
atp8304
Rp8305
sg3575
g1
((lp8306
g3572
ag3574
ag3575
atp8307
Rp8308
sg2620
g1
((lp8309
g2619
ag2617
ag7453
ag2620
atp8310
Rp8311
sg2302
g1
((lp8312
g2302
aS'geraldine'
p8313
ag2301
ag5809
atp8314
Rp8315
sg3890
g1
((lp8316
g3883
ag4677
ag3891
ag3884
ag3885
ag3887
ag3888
ag3889
ag3890
atp8317
Rp8318
sg2121
g1
((lp8319
g2118
ag2119
ag2114
ag2121
ag4120
ag2122
ag2123
ag2124
atp8320
Rp8321
sg4957
g1
((lp8322
g4957
aS'missy'
p8323
aS'milly'
p8324
atp8325
Rp8326
sg5124
g1
((lp8327
S'chris'
p8328
ag5124
atp8329
Rp8330
sg1633
g1
((lp8331
g1630
ag2991
ag5599
ag1632
ag2995
ag1633
ag5598
ag2994
ag2996
atp8332
Rp8333
sg477
g1
((lp8334
g5022
ag477
ag475
atp8335
Rp8336
sg2862
g1
((lp8337
g2860
ag3951
ag3949
ag2862
ag3953
atp8338
Rp8339
sg3001
g1
((lp8340
g2999
ag3001
ag3002
atp8341
Rp8342
sg5746
g1
((lp8343
g5746
ag5744
atp8344
Rp8345
sg4867
g1
((lp8346
S'franniey'
p8347
aS'fran'
p8348
aS'frannie'
p8349
aS'francie'
p8350
ag4867
atp8351
Rp8352
sg5136
g1
((lp8353
g5133
ag5135
ag5136
atp8354
Rp8355
sS'buren'
p8356
g1
((lp8357
g8356
aS'vanburen'
p8358
atp8359
Rp8360
sg2924
g1
((lp8361
S'lynn'
p8362
aS'carrie'
p8363
ag2924
aS'cassie'
p8364
atp8365
Rp8366
sS'terry'
p8367
g1
((lp8368
g2962
ag1681
ag3227
aS'terence'
p8369
ag2964
ag2965
ag8367
ag2967
ag2968
ag3228
atp8370
Rp8371
sg8272
g1
((lp8372
S'tony'
p8373
ag8272
ag8273
atp8374
Rp8375
sg2973
g1
((lp8376
g2971
ag2973
ag1295
atp8377
Rp8378
sg8369
g1
((lp8379
g8367
ag8369
atp8380
Rp8381
sg2819
g1
((lp8382
g4046
ag2823
ag2827
ag2819
atp8383
Rp8384
sg7926
g1
((lp8385
g7924
ag7926
atp8386
Rp8387
sg7734
g1
((lp8388
g7733
ag7732
ag7730
ag7734
atp8389
Rp8390
sg2023
g1
((lp8391
g2020
ag2022
ag2023
atp8392
Rp8393
sg2088
g1
((lp8394
g2085
ag2087
ag2088
atp8395
Rp8396
sg2354
g1
((lp8397
g2360
ag2354
ag2361
ag2350
ag2359
atp8398
Rp8399
sg3748
g1
((lp8400
S'nettie'
p8401
ag3748
atp8402
Rp8403
sg1386
g1
((lp8404
g1386
ag1388
aS'helen'
p8405
atp8406
Rp8407
sg3750
g1
((lp8408
g3750
ag3753
ag3743
atp8409
Rp8410
sg4949
g1
((lp8411
g4948
ag4949
ag3902
ag4946
ag4950
atp8412
Rp8413
sg4752
g1
((lp8414
g4749
ag4752
ag4753
atp8415
Rp8416
sg1250
g1
((lp8417
g1248
ag1250
atp8418
Rp8419
sg324
g1
((lp8420
g314
ag312
ag332
ag331
ag324
ag327
ag334
ag317
ag315
aS'marjorie'
p8421
ag333
ag328
ag325
ag335
ag321
ag322
atp8422
Rp8423
sg2964
g1
((lp8424
g2962
ag3227
ag2964
ag2965
ag2966
ag2967
ag2968
ag3228
atp8425
Rp8426
sg3268
g1
((lp8427
g3268
aS'elsey'
p8428
atp8429
Rp8430
sg7784
g1
((lp8431
g7784
ag7782
atp8432
Rp8433
sg328
g1
((lp8434
g314
ag315
ag316
ag317
ag318
ag319
ag320
ag321
ag322
ag312
ag323
ag324
ag325
ag326
ag327
ag328
ag329
ag330
ag331
ag332
ag333
ag334
ag335
atp8435
Rp8436
sg3780
g1
((lp8437
g3778
ag3776
ag3779
ag3780
atp8438
Rp8439
sg319
g1
((lp8440
g488
ag320
ag489
ag490
ag323
ag330
ag316
ag326
ag491
ag492
ag319
ag493
ag494
ag329
atp8441
Rp8442
sg2931
g1
((lp8443
g355
ag2931
ag2923
ag2924
ag7730
ag2932
ag363
ag2385
ag7420
ag2928
ag6592
ag7733
ag2930
ag2927
ag2921
ag7734
atp8444
Rp8445
sg641
g1
((lp8446
g641
ag639
atp8447
Rp8448
sg1034
g1
((lp8449
g1033
ag1034
ag1035
ag1036
ag1037
ag1031
ag1038
ag1039
atp8450
Rp8451
sg5786
g1
((lp8452
g5785
ag5783
ag5786
atp8453
Rp8454
sg8358
g1
((lp8455
g8356
ag8358
atp8456
Rp8457
sg4246
g1
((lp8458
g4244
ag4246
atp8459
Rp8460
sg6630
g1
((lp8461
g6628
ag6630
atp8462
Rp8463
sg2459
g1
((lp8464
g8094
ag2459
ag5212
ag2460
ag2461
ag2456
aS'jennifer'
p8465
atp8466
Rp8467
sg3239
g1
((lp8468
g3237
ag3239
atp8469
Rp8470
sg5966
g1
((lp8471
S'king'
p8472
ag5966
atp8473
Rp8474
sg745
g1
((lp8475
g745
ag746
ag737
ag740
atp8476
Rp8477
sg1501
g1
((lp8478
g1501
ag1499
atp8479
Rp8480
sg5147
g1
((lp8481
g5145
ag5146
ag5143
ag5147
ag5148
atp8482
Rp8483
sg3978
g1
((lp8484
g2962
ag3227
ag2964
ag2965
ag2966
ag3976
ag2967
ag3228
ag3978
atp8485
Rp8486
sg161
g1
((lp8487
g159
ag160
ag161
ag157
atp8488
Rp8489
sg5475
g1
((lp8490
g5475
ag5473
atp8491
Rp8492
sg3587
g1
((lp8493
g3586
ag4616
ag1993
ag6191
ag3584
ag1991
ag6192
ag3587
ag3588
ag1987
ag1994
ag3589
ag3590
atp8494
Rp8495
sg4489
g1
((lp8496
g4490
ag5368
ag4489
ag4491
atp8497
Rp8498
sg8090
g1
((lp8499
g8090
ag8088
atp8500
Rp8501
sg2469
g1
((lp8502
g2469
ag943
ag2467
ag2470
atp8503
Rp8504
sg1174
g1
((lp8505
g1176
ag1174
ag4738
ag4739
atp8506
Rp8507
sg7594
g1
((lp8508
g7594
ag7592
atp8509
Rp8510
sg4310
g1
((lp8511
g4308
ag4310
atp8512
Rp8513
sg4727
g1
((lp8514
g4727
ag4728
ag4725
atp8515
Rp8516
sg3207
g1
((lp8517
g4402
ag4405
ag3207
ag4406
ag3205
atp8518
Rp8519
sg8001
g1
((lp8520
g7999
ag8001
atp8521
Rp8522
sg5863
g1
((lp8523
g314
ag335
ag312
ag332
ag331
ag324
ag327
ag325
ag317
ag5863
ag333
ag328
aS'margaretta'
p8524
ag5861
ag1392
ag321
ag322
atp8525
Rp8526
sg2857
g1
((lp8527
g2854
ag2855
ag2856
ag2857
ag2852
atp8528
Rp8529
sg2535
g1
((lp8530
g4889
ag2535
ag2533
atp8531
Rp8532
sg5457
g1
((lp8533
g8373
ag5456
ag5454
ag8272
ag5457
atp8534
Rp8535
sg1388
g1
((lp8536
g546
ag891
ag193
ag533
ag197
ag536
ag195
ag539
ag196
ag542
ag529
ag1386
ag545
ag8405
ag1388
ag201
atp8537
Rp8538
sg2604
g1
((lp8539
g5292
ag2600
ag2604
ag2603
aS'elsey'
p8540
ag2602
atp8541
Rp8542
sg120
g1
((lp8543
g2238
ag2239
ag118
ag120
ag127
ag123
atp8544
Rp8545
sg2887
g1
((lp8546
g3658
ag2886
ag4854
ag3660
ag4856
ag2887
ag2888
atp8547
Rp8548
s.